   1              		.cpu cortex-m0
   2              		.fpu softvfp
   3              		.eabi_attribute 20, 1
   4              		.eabi_attribute 21, 1
   5              		.eabi_attribute 23, 3
   6              		.eabi_attribute 24, 1
   7              		.eabi_attribute 25, 1
   8              		.eabi_attribute 26, 1
   9              		.eabi_attribute 30, 6
  10              		.eabi_attribute 34, 0
  11              		.eabi_attribute 18, 4
  12              		.code	16
  13              		.file	"Config.c"
  14              		.text
  15              	.Ltext0:
  16              		.cfi_sections	.debug_frame
  17              		.comm	straight_speed,4,4
  18              		.comm	medium_speed,4,4
  19              		.comm	turn_speed,4,4
  20              		.comm	brake_speed,4,4
  21              		.comm	speedC,4,4
  22              		.comm	LineScanData,200,4
  23              		.comm	histogram,4096,4
  24              		.comm	kp,8,8
  25              		.comm	ki,8,8
  26              		.comm	kd,8,8
  27              		.comm	lastError,8,8
  28              		.comm	llastError,8,8
  29              		.comm	lastOutput,4,4
  30              		.comm	AccData,6,4
  31              		.comm	Xout,2,2
  32              		.comm	Yout,2,2
  33              		.comm	Zout,2,2
  34              		.comm	Xoffset,1,1
  35              		.comm	Yoffset,1,1
  36              		.comm	Zoffset,1,1
  37              		.comm	ramp,4,4
  38              		.section	.text.Initialize,"ax",%progbits
  39              		.align	2
  40              		.global	Initialize
  41              		.code	16
  42              		.thumb_func
  44              	Initialize:
  45              	.LFB0:
  46              		.file 1 "../Sources/Config.c"
   1:../Sources/Config.c **** #include "Config.h"
   2:../Sources/Config.c **** 
   3:../Sources/Config.c **** /*
   4:../Sources/Config.c ****  * File: Config.c
   5:../Sources/Config.c ****  * Freescale Cup 2014
   6:../Sources/Config.c ****  * Team: Freesnail
   7:../Sources/Config.c ****  * Author: Brent Dimmig <bnd8678@rit.edu>
   8:../Sources/Config.c ****  * 		   Ben Kraines 	<bjk6868@rit.edu>
   9:../Sources/Config.c ****  * Created: 2/13/2014
  10:../Sources/Config.c ****  * Modified: 2/28/2014
  11:../Sources/Config.c ****  * 
  12:../Sources/Config.c ****  * Description: Overall setup functionality.
  13:../Sources/Config.c ****  */
  14:../Sources/Config.c **** 
  15:../Sources/Config.c **** /*
  16:../Sources/Config.c ****  * Initialize clock, system, GPIO, Servos and Motors
  17:../Sources/Config.c ****  */
  18:../Sources/Config.c **** void Initialize()
  19:../Sources/Config.c **** {
  47              		.loc 1 19 0
  48              		.cfi_startproc
  49 0000 80B5     		push	{r7, lr}
  50              	.LCFI0:
  51              		.cfi_def_cfa_offset 8
  52              		.cfi_offset 7, -8
  53              		.cfi_offset 14, -4
  54 0002 00AF     		add	r7, sp, #0
  55              	.LCFI1:
  56              		.cfi_def_cfa_register 7
  20:../Sources/Config.c **** 	InitClock();
  57              		.loc 1 20 0
  58 0004 FFF7FEFF 		bl	InitClock
  21:../Sources/Config.c **** 	InitSysTick();
  59              		.loc 1 21 0
  60 0008 FFF7FEFF 		bl	InitSysTick
  22:../Sources/Config.c **** 	InitGPIO();
  61              		.loc 1 22 0
  62 000c FFF7FEFF 		bl	InitGPIO
  23:../Sources/Config.c **** 	InitLineScanCamera();
  63              		.loc 1 23 0
  64 0010 FFF7FEFF 		bl	InitLineScanCamera
  24:../Sources/Config.c **** 	InitServo();
  65              		.loc 1 24 0
  66 0014 FFF7FEFF 		bl	InitServo
  25:../Sources/Config.c **** 	InitMotor();
  67              		.loc 1 25 0
  68 0018 FFF7FEFF 		bl	InitMotor
  26:../Sources/Config.c **** 	InitAccel();
  69              		.loc 1 26 0
  70 001c FFF7FEFF 		bl	InitAccel
  27:../Sources/Config.c **** 	InitADCs();
  71              		.loc 1 27 0
  72 0020 FFF7FEFF 		bl	InitADCs
  28:../Sources/Config.c **** }
  73              		.loc 1 28 0
  74 0024 BD46     		mov	sp, r7
  75              		@ sp needed for prologue
  76 0026 80BD     		pop	{r7, pc}
  77              		.cfi_endproc
  78              	.LFE0:
  80              		.section	.text.InitGPIO,"ax",%progbits
  81              		.align	2
  82              		.global	InitGPIO
  83              		.code	16
  84              		.thumb_func
  86              	InitGPIO:
  87              	.LFB1:
  29:../Sources/Config.c **** 
  30:../Sources/Config.c **** /*
  31:../Sources/Config.c ****  * Set I/O for H-BRIDGE enables, switches and LEDs
  32:../Sources/Config.c ****  */
  33:../Sources/Config.c **** void InitGPIO()
  34:../Sources/Config.c **** {
  88              		.loc 1 34 0
  89              		.cfi_startproc
  90 0000 80B5     		push	{r7, lr}
  91              	.LCFI2:
  92              		.cfi_def_cfa_offset 8
  93              		.cfi_offset 7, -8
  94              		.cfi_offset 14, -4
  95 0002 00AF     		add	r7, sp, #0
  96              	.LCFI3:
  97              		.cfi_def_cfa_register 7
  35:../Sources/Config.c **** 	//enable Clocks to all ports
  36:../Sources/Config.c **** 	SIM_SCGC5 |= SIM_SCGC5_PORTA_MASK | SIM_SCGC5_PORTB_MASK | SIM_SCGC5_PORTC_MASK | SIM_SCGC5_PORTD_
  98              		.loc 1 36 0
  99 0004 234A     		ldr	r2, .L3
 100 0006 2349     		ldr	r1, .L3
 101 0008 234B     		ldr	r3, .L3+4
 102 000a CB58     		ldr	r3, [r1, r3]
 103 000c F821     		mov	r1, #248
 104 000e 8901     		lsl	r1, r1, #6
 105 0010 1943     		orr	r1, r3
 106 0012 214B     		ldr	r3, .L3+4
 107 0014 D150     		str	r1, [r2, r3]
  37:../Sources/Config.c **** 
  38:../Sources/Config.c **** 	//Setup Pins as GPIO
  39:../Sources/Config.c **** 	PORTE_PCR21 = PORT_PCR_MUX(1) | PORT_PCR_DSE_MASK;   
 108              		.loc 1 39 0
 109 0016 214B     		ldr	r3, .L3+8
 110 0018 A022     		mov	r2, #160
 111 001a 5200     		lsl	r2, r2, #1
 112 001c 5A65     		str	r2, [r3, #84]
  40:../Sources/Config.c **** 	PORTE_PCR20 = PORT_PCR_MUX(1);
 113              		.loc 1 40 0
 114 001e 1F4B     		ldr	r3, .L3+8
 115 0020 8022     		mov	r2, #128
 116 0022 5200     		lsl	r2, r2, #1
 117 0024 1A65     		str	r2, [r3, #80]
  41:../Sources/Config.c **** 	
  42:../Sources/Config.c **** 	//Setup the output pins
  43:../Sources/Config.c **** 	GPIOB_PDDR =  LED0 | LED1 | LED2 | LED3;
 118              		.loc 1 43 0
 119 0026 1E4B     		ldr	r3, .L3+12
 120 0028 F022     		mov	r2, #240
 121 002a 1201     		lsl	r2, r2, #4
 122 002c 5A61     		str	r2, [r3, #20]
  44:../Sources/Config.c ****     GPIOE_PDDR =  HBRIDGE_EN_LOC;
 123              		.loc 1 44 0
 124 002e 1D4B     		ldr	r3, .L3+16
 125 0030 8022     		mov	r2, #128
 126 0032 9203     		lsl	r2, r2, #14
 127 0034 5A61     		str	r2, [r3, #20]
  45:../Sources/Config.c **** 	GPIOD_PDDR |= LEDB;
 128              		.loc 1 45 0
 129 0036 1C4B     		ldr	r3, .L3+20
 130 0038 1B4A     		ldr	r2, .L3+20
 131 003a 5269     		ldr	r2, [r2, #20]
 132 003c 0221     		mov	r1, #2
 133 003e 0A43     		orr	r2, r1
 134 0040 5A61     		str	r2, [r3, #20]
  46:../Sources/Config.c **** 
  47:../Sources/Config.c **** 	//Port for Pushbuttons
  48:../Sources/Config.c **** 	PORTC_PCR13 = PORT_PCR_MUX(1);
 135              		.loc 1 48 0
 136 0042 1A4B     		ldr	r3, .L3+24
 137 0044 8022     		mov	r2, #128
 138 0046 5200     		lsl	r2, r2, #1
 139 0048 5A63     		str	r2, [r3, #52]
  49:../Sources/Config.c **** 	PORTC_PCR17 = PORT_PCR_MUX(1);
 140              		.loc 1 49 0
 141 004a 184B     		ldr	r3, .L3+24
 142 004c 8022     		mov	r2, #128
 143 004e 5200     		lsl	r2, r2, #1
 144 0050 5A64     		str	r2, [r3, #68]
  50:../Sources/Config.c **** 
  51:../Sources/Config.c **** 	//Ports for LEDs
  52:../Sources/Config.c **** 	PORTD_PCR1 = PORT_PCR_MUX(1) | PORT_PCR_DSE_MASK; 
 145              		.loc 1 52 0
 146 0052 174B     		ldr	r3, .L3+28
 147 0054 A022     		mov	r2, #160
 148 0056 5200     		lsl	r2, r2, #1
 149 0058 5A60     		str	r2, [r3, #4]
  53:../Sources/Config.c **** 	PORTB_PCR8 = PORT_PCR_MUX(1) | PORT_PCR_DSE_MASK;   
 150              		.loc 1 53 0
 151 005a 164B     		ldr	r3, .L3+32
 152 005c A022     		mov	r2, #160
 153 005e 5200     		lsl	r2, r2, #1
 154 0060 1A62     		str	r2, [r3, #32]
  54:../Sources/Config.c **** 	PORTB_PCR9 = PORT_PCR_MUX(1) | PORT_PCR_DSE_MASK;   
 155              		.loc 1 54 0
 156 0062 144B     		ldr	r3, .L3+32
 157 0064 A022     		mov	r2, #160
 158 0066 5200     		lsl	r2, r2, #1
 159 0068 5A62     		str	r2, [r3, #36]
  55:../Sources/Config.c **** 	PORTB_PCR10 = PORT_PCR_MUX(1) | PORT_PCR_DSE_MASK;   
 160              		.loc 1 55 0
 161 006a 124B     		ldr	r3, .L3+32
 162 006c A022     		mov	r2, #160
 163 006e 5200     		lsl	r2, r2, #1
 164 0070 9A62     		str	r2, [r3, #40]
  56:../Sources/Config.c **** 	PORTB_PCR11 = PORT_PCR_MUX(1) | PORT_PCR_DSE_MASK;  
 165              		.loc 1 56 0
 166 0072 104B     		ldr	r3, .L3+32
 167 0074 A022     		mov	r2, #160
 168 0076 5200     		lsl	r2, r2, #1
 169 0078 DA62     		str	r2, [r3, #44]
  57:../Sources/Config.c **** 	
  58:../Sources/Config.c **** 	LEDB_ON;
 170              		.loc 1 58 0
 171 007a 0B4B     		ldr	r3, .L3+20
 172 007c 0A4A     		ldr	r2, .L3+20
 173 007e 5268     		ldr	r2, [r2, #4]
 174 0080 0221     		mov	r1, #2
 175 0082 0A43     		orr	r2, r1
 176 0084 5A60     		str	r2, [r3, #4]
  59:../Sources/Config.c ****     
  60:../Sources/Config.c ****     HBRIDGE_DISABLE;
 177              		.loc 1 60 0
 178 0086 074B     		ldr	r3, .L3+16
 179 0088 8022     		mov	r2, #128
 180 008a 9203     		lsl	r2, r2, #14
 181 008c 9A60     		str	r2, [r3, #8]
  61:../Sources/Config.c **** }
 182              		.loc 1 61 0
 183 008e BD46     		mov	sp, r7
 184              		@ sp needed for prologue
 185 0090 80BD     		pop	{r7, pc}
 186              	.L4:
 187 0092 C046     		.align	2
 188              	.L3:
 189 0094 00700440 		.word	1074032640
 190 0098 38100000 		.word	4152
 191 009c 00D00440 		.word	1074057216
 192 00a0 40F00F40 		.word	1074786368
 193 00a4 00F10F40 		.word	1074786560
 194 00a8 C0F00F40 		.word	1074786496
 195 00ac 00B00440 		.word	1074049024
 196 00b0 00C00440 		.word	1074053120
 197 00b4 00A00440 		.word	1074044928
 198              		.cfi_endproc
 199              	.LFE1:
 201              		.text
 202              	.Letext0:
 203              		.file 2 "C:/Freescale/CW MCU v10.5/MCU/ARM_GCC_Support/ewl/EWL_C/include/cstdint"
 204              		.file 3 "C:/Users/Brent Dimmig/workspace/Freesnail/Project_Headers/MKL25Z4.h"
 205              		.file 4 "C:/Users/Brent Dimmig/workspace/Freesnail/Project_Headers/Control.h"
 206              		.file 5 "C:/Users/Brent Dimmig/workspace/Freesnail/Project_Headers/LineScanCamera.h"
 207              		.file 6 "C:/Users/Brent Dimmig/workspace/Freesnail/Project_Headers/PID.h"
 208              		.file 7 "C:/Users/Brent Dimmig/workspace/Freesnail/Project_Headers/Accel.h"