   1              		.cpu cortex-m0
   2              		.fpu softvfp
   3              		.eabi_attribute 20, 1
   4              		.eabi_attribute 21, 1
   5              		.eabi_attribute 23, 3
   6              		.eabi_attribute 24, 1
   7              		.eabi_attribute 25, 1
   8              		.eabi_attribute 26, 1
   9              		.eabi_attribute 30, 6
  10              		.eabi_attribute 34, 0
  11              		.eabi_attribute 18, 4
  12              		.code	16
  13              		.file	"PID.c"
  14              		.text
  15              	.Ltext0:
  16              		.cfi_sections	.debug_frame
  17              		.comm	straight_speed,4,4
  18              		.comm	medium_speed,4,4
  19              		.comm	turn_speed,4,4
  20              		.comm	brake_speed,4,4
  21              		.comm	speedC,4,4
  22              		.comm	LineScanData,200,4
  23              		.comm	histogram,4096,4
  24              		.comm	kp,8,8
  25              		.comm	ki,8,8
  26              		.comm	kd,8,8
  27              		.comm	lastError,8,8
  28              		.comm	llastError,8,8
  29              		.comm	lastOutput,4,4
  30              		.comm	AccData,6,4
  31              		.comm	Xout,2,2
  32              		.comm	Yout,2,2
  33              		.comm	Zout,2,2
  34              		.comm	Xoffset,1,1
  35              		.comm	Yoffset,1,1
  36              		.comm	Zoffset,1,1
  37              		.comm	ramp,4,4
  38              		.global	__aeabi_i2d
  39              		.global	__aeabi_dsub
  40              		.global	__aeabi_dmul
  41              		.global	__aeabi_dadd
  42              		.global	__aeabi_ddiv
  43              		.global	__aeabi_dcmpgt
  44              		.global	__aeabi_dcmplt
  45              		.global	__aeabi_d2iz
  46              		.section	.text.ComputeTurn,"ax",%progbits
  47              		.align	2
  48              		.global	ComputeTurn
  49              		.code	16
  50              		.thumb_func
  52              	ComputeTurn:
  53              	.LFB0:
  54              		.file 1 "../Sources/PID.c"
   1:../Sources/PID.c **** #include "Config.h"
   2:../Sources/PID.c **** 
   3:../Sources/PID.c **** /* 
   4:../Sources/PID.c ****  * Give a line position input and return
   5:../Sources/PID.c ****  * the new servo value to set.
   6:../Sources/PID.c ****  * Assumes the time SAMPLE_MS has passed before calling
   7:../Sources/PID.c ****  */
   8:../Sources/PID.c **** int ComputeTurn(int input)
   9:../Sources/PID.c **** {
  55              		.loc 1 9 0
  56              		.cfi_startproc
  57 0000 F0B5     		push	{r4, r5, r6, r7, lr}
  58              	.LCFI0:
  59              		.cfi_def_cfa_offset 20
  60              		.cfi_offset 4, -20
  61              		.cfi_offset 5, -16
  62              		.cfi_offset 6, -12
  63              		.cfi_offset 7, -8
  64              		.cfi_offset 14, -4
  65 0002 87B0     		sub	sp, sp, #28
  66              	.LCFI1:
  67              		.cfi_def_cfa_offset 48
  68 0004 00AF     		add	r7, sp, #0
  69              	.LCFI2:
  70              		.cfi_def_cfa_register 7
  71 0006 7860     		str	r0, [r7, #4]
  10:../Sources/PID.c **** 	double error, output;
  11:../Sources/PID.c **** 	// e(t)
  12:../Sources/PID.c **** 	error = input;
  72              		.loc 1 12 0
  73 0008 7868     		ldr	r0, [r7, #4]
  74 000a FFF7FEFF 		bl	__aeabi_i2d
  75 000e 031C     		mov	r3, r0
  76 0010 0C1C     		mov	r4, r1
  77 0012 BB60     		str	r3, [r7, #8]
  78 0014 FC60     		str	r4, [r7, #12]
  13:../Sources/PID.c **** 	
  14:../Sources/PID.c **** 	// Velocity algorithm for PID uses last computation for I and 3-point backwards difference for D
  15:../Sources/PID.c **** 	// Calculates the change in position needed
  16:../Sources/PID.c **** 	//u(t) =    u(t-1)  + Kp * (e(t)  - e(t-1)   ) + Ki * (e(t) + e(t-1))/2     + Kd * (e(t)  - 2e(t-1
  17:../Sources/PID.c **** 	output = lastOutput + kp * (error - lastError) + ki * (error+lastError+llastError)/3.0 + kd * (err
  79              		.loc 1 17 0
  80 0016 824B     		ldr	r3, .L10+40
  81 0018 1B68     		ldr	r3, [r3]
  82 001a 181C     		mov	r0, r3
  83 001c FFF7FEFF 		bl	__aeabi_i2d
  84 0020 051C     		mov	r5, r0
  85 0022 0E1C     		mov	r6, r1
  86 0024 7F4B     		ldr	r3, .L10+44
  87 0026 5C68     		ldr	r4, [r3, #4]
  88 0028 1B68     		ldr	r3, [r3]
  89 002a B868     		ldr	r0, [r7, #8]
  90 002c F968     		ldr	r1, [r7, #12]
  91 002e 1A1C     		mov	r2, r3
  92 0030 231C     		mov	r3, r4
  93 0032 FFF7FEFF 		bl	__aeabi_dsub
  94 0036 031C     		mov	r3, r0
  95 0038 0C1C     		mov	r4, r1
  96 003a 191C     		mov	r1, r3
  97 003c 221C     		mov	r2, r4
  98 003e 7A4B     		ldr	r3, .L10+48
  99 0040 5C68     		ldr	r4, [r3, #4]
 100 0042 1B68     		ldr	r3, [r3]
 101 0044 081C     		mov	r0, r1
 102 0046 111C     		mov	r1, r2
 103 0048 1A1C     		mov	r2, r3
 104 004a 231C     		mov	r3, r4
 105 004c FFF7FEFF 		bl	__aeabi_dmul
 106 0050 031C     		mov	r3, r0
 107 0052 0C1C     		mov	r4, r1
 108 0054 281C     		mov	r0, r5
 109 0056 311C     		mov	r1, r6
 110 0058 1A1C     		mov	r2, r3
 111 005a 231C     		mov	r3, r4
 112 005c FFF7FEFF 		bl	__aeabi_dadd
 113 0060 031C     		mov	r3, r0
 114 0062 0C1C     		mov	r4, r1
 115 0064 1D1C     		mov	r5, r3
 116 0066 261C     		mov	r6, r4
 117 0068 6E4B     		ldr	r3, .L10+44
 118 006a 5C68     		ldr	r4, [r3, #4]
 119 006c 1B68     		ldr	r3, [r3]
 120 006e 181C     		mov	r0, r3
 121 0070 211C     		mov	r1, r4
 122 0072 BA68     		ldr	r2, [r7, #8]
 123 0074 FB68     		ldr	r3, [r7, #12]
 124 0076 FFF7FEFF 		bl	__aeabi_dadd
 125 007a 031C     		mov	r3, r0
 126 007c 0C1C     		mov	r4, r1
 127 007e 191C     		mov	r1, r3
 128 0080 221C     		mov	r2, r4
 129 0082 6A4B     		ldr	r3, .L10+52
 130 0084 5C68     		ldr	r4, [r3, #4]
 131 0086 1B68     		ldr	r3, [r3]
 132 0088 081C     		mov	r0, r1
 133 008a 111C     		mov	r1, r2
 134 008c 1A1C     		mov	r2, r3
 135 008e 231C     		mov	r3, r4
 136 0090 FFF7FEFF 		bl	__aeabi_dadd
 137 0094 031C     		mov	r3, r0
 138 0096 0C1C     		mov	r4, r1
 139 0098 191C     		mov	r1, r3
 140 009a 221C     		mov	r2, r4
 141 009c 644B     		ldr	r3, .L10+56
 142 009e 5C68     		ldr	r4, [r3, #4]
 143 00a0 1B68     		ldr	r3, [r3]
 144 00a2 081C     		mov	r0, r1
 145 00a4 111C     		mov	r1, r2
 146 00a6 1A1C     		mov	r2, r3
 147 00a8 231C     		mov	r3, r4
 148 00aa FFF7FEFF 		bl	__aeabi_dmul
 149 00ae 031C     		mov	r3, r0
 150 00b0 0C1C     		mov	r4, r1
 151 00b2 181C     		mov	r0, r3
 152 00b4 211C     		mov	r1, r4
 153 00b6 514B     		ldr	r3, .L10+4
 154 00b8 4F4A     		ldr	r2, .L10
 155 00ba FFF7FEFF 		bl	__aeabi_ddiv
 156 00be 031C     		mov	r3, r0
 157 00c0 0C1C     		mov	r4, r1
 158 00c2 281C     		mov	r0, r5
 159 00c4 311C     		mov	r1, r6
 160 00c6 1A1C     		mov	r2, r3
 161 00c8 231C     		mov	r3, r4
 162 00ca FFF7FEFF 		bl	__aeabi_dadd
 163 00ce 031C     		mov	r3, r0
 164 00d0 0C1C     		mov	r4, r1
 165 00d2 1D1C     		mov	r5, r3
 166 00d4 261C     		mov	r6, r4
 167 00d6 534B     		ldr	r3, .L10+44
 168 00d8 5C68     		ldr	r4, [r3, #4]
 169 00da 1B68     		ldr	r3, [r3]
 170 00dc 181C     		mov	r0, r3
 171 00de 211C     		mov	r1, r4
 172 00e0 1A1C     		mov	r2, r3
 173 00e2 231C     		mov	r3, r4
 174 00e4 FFF7FEFF 		bl	__aeabi_dadd
 175 00e8 031C     		mov	r3, r0
 176 00ea 0C1C     		mov	r4, r1
 177 00ec B868     		ldr	r0, [r7, #8]
 178 00ee F968     		ldr	r1, [r7, #12]
 179 00f0 1A1C     		mov	r2, r3
 180 00f2 231C     		mov	r3, r4
 181 00f4 FFF7FEFF 		bl	__aeabi_dsub
 182 00f8 031C     		mov	r3, r0
 183 00fa 0C1C     		mov	r4, r1
 184 00fc 191C     		mov	r1, r3
 185 00fe 221C     		mov	r2, r4
 186 0100 4A4B     		ldr	r3, .L10+52
 187 0102 5C68     		ldr	r4, [r3, #4]
 188 0104 1B68     		ldr	r3, [r3]
 189 0106 081C     		mov	r0, r1
 190 0108 111C     		mov	r1, r2
 191 010a 1A1C     		mov	r2, r3
 192 010c 231C     		mov	r3, r4
 193 010e FFF7FEFF 		bl	__aeabi_dadd
 194 0112 031C     		mov	r3, r0
 195 0114 0C1C     		mov	r4, r1
 196 0116 191C     		mov	r1, r3
 197 0118 221C     		mov	r2, r4
 198 011a 464B     		ldr	r3, .L10+60
 199 011c 5C68     		ldr	r4, [r3, #4]
 200 011e 1B68     		ldr	r3, [r3]
 201 0120 081C     		mov	r0, r1
 202 0122 111C     		mov	r1, r2
 203 0124 1A1C     		mov	r2, r3
 204 0126 231C     		mov	r3, r4
 205 0128 FFF7FEFF 		bl	__aeabi_dmul
 206 012c 031C     		mov	r3, r0
 207 012e 0C1C     		mov	r4, r1
 208 0130 281C     		mov	r0, r5
 209 0132 311C     		mov	r1, r6
 210 0134 1A1C     		mov	r2, r3
 211 0136 231C     		mov	r3, r4
 212 0138 FFF7FEFF 		bl	__aeabi_dadd
 213 013c 031C     		mov	r3, r0
 214 013e 0C1C     		mov	r4, r1
 215 0140 3B61     		str	r3, [r7, #16]
 216 0142 7C61     		str	r4, [r7, #20]
  18:../Sources/PID.c **** 
  19:../Sources/PID.c **** 	if(output > MAX)
 217              		.loc 1 19 0
 218 0144 3869     		ldr	r0, [r7, #16]
 219 0146 7969     		ldr	r1, [r7, #20]
 220 0148 2D4A     		ldr	r2, .L10+8
 221 014a 2E4B     		ldr	r3, .L10+12
 222 014c FFF7FEFF 		bl	__aeabi_dcmpgt
 223 0150 031C     		mov	r3, r0
 224 0152 002B     		cmp	r3, #0
 225 0154 04D0     		beq	.L9
 226              	.L7:
  20:../Sources/PID.c **** 		output = MAX;
 227              		.loc 1 20 0
 228 0156 2A4B     		ldr	r3, .L10+8
 229 0158 2A4C     		ldr	r4, .L10+12
 230 015a 3B61     		str	r3, [r7, #16]
 231 015c 7C61     		str	r4, [r7, #20]
 232 015e 0CE0     		b	.L4
 233              	.L9:
  21:../Sources/PID.c **** 	else if(output < -MAX)
 234              		.loc 1 21 0
 235 0160 3869     		ldr	r0, [r7, #16]
 236 0162 7969     		ldr	r1, [r7, #20]
 237 0164 284A     		ldr	r2, .L10+16
 238 0166 294B     		ldr	r3, .L10+20
 239 0168 FFF7FEFF 		bl	__aeabi_dcmplt
 240 016c 031C     		mov	r3, r0
 241 016e 002B     		cmp	r3, #0
 242 0170 03D0     		beq	.L4
 243              	.L8:
  22:../Sources/PID.c **** 		output = -MAX;
 244              		.loc 1 22 0
 245 0172 254B     		ldr	r3, .L10+16
 246 0174 254C     		ldr	r4, .L10+20
 247 0176 3B61     		str	r3, [r7, #16]
 248 0178 7C61     		str	r4, [r7, #20]
 249              	.L4:
  23:../Sources/PID.c **** 	
  24:../Sources/PID.c **** 	//Save last values at t-1
  25:../Sources/PID.c **** 	// e(t-2)  = e(t-1)
  26:../Sources/PID.c **** 	llastError = lastError;
 250              		.loc 1 26 0
 251 017a 2A4B     		ldr	r3, .L10+44
 252 017c 5C68     		ldr	r4, [r3, #4]
 253 017e 1B68     		ldr	r3, [r3]
 254 0180 2A4A     		ldr	r2, .L10+52
 255 0182 1360     		str	r3, [r2]
 256 0184 5460     		str	r4, [r2, #4]
  27:../Sources/PID.c **** 	// e(t-1)  = e(t)
  28:../Sources/PID.c **** 	lastError = error;
 257              		.loc 1 28 0
 258 0186 274A     		ldr	r2, .L10+44
 259 0188 BB68     		ldr	r3, [r7, #8]
 260 018a FC68     		ldr	r4, [r7, #12]
 261 018c 1360     		str	r3, [r2]
 262 018e 5460     		str	r4, [r2, #4]
  29:../Sources/PID.c **** 	
  30:../Sources/PID.c **** 	output = lastOutput*0.3 + output*0.7;
 263              		.loc 1 30 0
 264 0190 234B     		ldr	r3, .L10+40
 265 0192 1B68     		ldr	r3, [r3]
 266 0194 181C     		mov	r0, r3
 267 0196 FFF7FEFF 		bl	__aeabi_i2d
 268 019a 031C     		mov	r3, r0
 269 019c 0C1C     		mov	r4, r1
 270 019e 181C     		mov	r0, r3
 271 01a0 211C     		mov	r1, r4
 272 01a2 1B4A     		ldr	r2, .L10+24
 273 01a4 1B4B     		ldr	r3, .L10+28
 274 01a6 FFF7FEFF 		bl	__aeabi_dmul
 275 01aa 031C     		mov	r3, r0
 276 01ac 0C1C     		mov	r4, r1
 277 01ae 1D1C     		mov	r5, r3
 278 01b0 261C     		mov	r6, r4
 279 01b2 3869     		ldr	r0, [r7, #16]
 280 01b4 7969     		ldr	r1, [r7, #20]
 281 01b6 184A     		ldr	r2, .L10+32
 282 01b8 184B     		ldr	r3, .L10+36
 283 01ba FFF7FEFF 		bl	__aeabi_dmul
 284 01be 031C     		mov	r3, r0
 285 01c0 0C1C     		mov	r4, r1
 286 01c2 281C     		mov	r0, r5
 287 01c4 311C     		mov	r1, r6
 288 01c6 1A1C     		mov	r2, r3
 289 01c8 231C     		mov	r3, r4
 290 01ca FFF7FEFF 		bl	__aeabi_dadd
 291 01ce 031C     		mov	r3, r0
 292 01d0 0C1C     		mov	r4, r1
 293 01d2 3B61     		str	r3, [r7, #16]
 294 01d4 7C61     		str	r4, [r7, #20]
  31:../Sources/PID.c **** 	
  32:../Sources/PID.c **** 	// u(t-1)  = u(t)
  33:../Sources/PID.c **** 	lastOutput = (int)output;
 295              		.loc 1 33 0
 296 01d6 3869     		ldr	r0, [r7, #16]
 297 01d8 7969     		ldr	r1, [r7, #20]
 298 01da FFF7FEFF 		bl	__aeabi_d2iz
 299 01de 021C     		mov	r2, r0
 300 01e0 0F4B     		ldr	r3, .L10+40
 301 01e2 1A60     		str	r2, [r3]
  34:../Sources/PID.c **** 	
  35:../Sources/PID.c **** 	// u(t)
  36:../Sources/PID.c **** 	return output;
 302              		.loc 1 36 0
 303 01e4 3869     		ldr	r0, [r7, #16]
 304 01e6 7969     		ldr	r1, [r7, #20]
 305 01e8 FFF7FEFF 		bl	__aeabi_d2iz
 306 01ec 031C     		mov	r3, r0
  37:../Sources/PID.c **** }
 307              		.loc 1 37 0
 308 01ee 181C     		mov	r0, r3
 309 01f0 BD46     		mov	sp, r7
 310 01f2 07B0     		add	sp, sp, #28
 311              		@ sp needed for prologue
 312 01f4 F0BD     		pop	{r4, r5, r6, r7, pc}
 313              	.L11:
 314 01f6 C046     		.align	3
 315              	.L10:
 316 01f8 00000000 		.word	0
 317 01fc 00000840 		.word	1074266112
 318 0200 00000000 		.word	0
 319 0204 00005940 		.word	1079574528
 320 0208 00000000 		.word	0
 321 020c 000059C0 		.word	-1067909120
 322 0210 33333333 		.word	858993459
 323 0214 3333D33F 		.word	1070805811
 324 0218 66666666 		.word	1717986918
 325 021c 6666E63F 		.word	1072064102
 326 0220 00000000 		.word	lastOutput
 327 0224 00000000 		.word	lastError
 328 0228 00000000 		.word	kp
 329 022c 00000000 		.word	llastError
 330 0230 00000000 		.word	ki
 331 0234 00000000 		.word	kd
 332              		.cfi_endproc
 333              	.LFE0:
 335              		.section	.text.TunePID,"ax",%progbits
 336              		.align	2
 337              		.global	TunePID
 338              		.code	16
 339              		.thumb_func
 341              	TunePID:
 342              	.LFB1:
  38:../Sources/PID.c **** 
  39:../Sources/PID.c **** /*
  40:../Sources/PID.c ****  * Set values for PID coefficients
  41:../Sources/PID.c ****  */
  42:../Sources/PID.c **** void TunePID(double Kp, double Ki, double Kd)
  43:../Sources/PID.c **** {
 343              		.loc 1 43 0
 344              		.cfi_startproc
 345 0000 90B5     		push	{r4, r7, lr}
 346              	.LCFI3:
 347              		.cfi_def_cfa_offset 12
 348              		.cfi_offset 4, -12
 349              		.cfi_offset 7, -8
 350              		.cfi_offset 14, -4
 351 0002 85B0     		sub	sp, sp, #20
 352              	.LCFI4:
 353              		.cfi_def_cfa_offset 32
 354 0004 00AF     		add	r7, sp, #0
 355              	.LCFI5:
 356              		.cfi_def_cfa_register 7
 357 0006 B860     		str	r0, [r7, #8]
 358 0008 F960     		str	r1, [r7, #12]
 359 000a 3A60     		str	r2, [r7]
 360 000c 7B60     		str	r3, [r7, #4]
  44:../Sources/PID.c **** 	// Max swing is 200
  45:../Sources/PID.c **** 	kp = Kp / 2.0;
 361              		.loc 1 45 0
 362 000e B868     		ldr	r0, [r7, #8]
 363 0010 F968     		ldr	r1, [r7, #12]
 364 0012 184B     		ldr	r3, .L13+4
 365 0014 164A     		ldr	r2, .L13
 366 0016 FFF7FEFF 		bl	__aeabi_ddiv
 367 001a 031C     		mov	r3, r0
 368 001c 0C1C     		mov	r4, r1
 369 001e 1C4A     		ldr	r2, .L13+32
 370 0020 1360     		str	r3, [r2]
 371 0022 5460     		str	r4, [r2, #4]
  46:../Sources/PID.c **** 	// Maximum swing is 100
  47:../Sources/PID.c **** 	ki = Ki / 20.0;
 372              		.loc 1 47 0
 373 0024 3868     		ldr	r0, [r7]
 374 0026 7968     		ldr	r1, [r7, #4]
 375 0028 134A     		ldr	r2, .L13+8
 376 002a 144B     		ldr	r3, .L13+12
 377 002c FFF7FEFF 		bl	__aeabi_ddiv
 378 0030 031C     		mov	r3, r0
 379 0032 0C1C     		mov	r4, r1
 380 0034 174A     		ldr	r2, .L13+36
 381 0036 1360     		str	r3, [r2]
 382 0038 5460     		str	r4, [r2, #4]
  48:../Sources/PID.c **** 	// Kd maximum swing is 4*100
  49:../Sources/PID.c **** 	kd = Kd / 4.0;
 383              		.loc 1 49 0
 384 003a 386A     		ldr	r0, [r7, #32]
 385 003c 796A     		ldr	r1, [r7, #36]
 386 003e 104A     		ldr	r2, .L13+16
 387 0040 104B     		ldr	r3, .L13+20
 388 0042 FFF7FEFF 		bl	__aeabi_ddiv
 389 0046 031C     		mov	r3, r0
 390 0048 0C1C     		mov	r4, r1
 391 004a 134A     		ldr	r2, .L13+40
 392 004c 1360     		str	r3, [r2]
 393 004e 5460     		str	r4, [r2, #4]
  50:../Sources/PID.c **** 	
  51:../Sources/PID.c **** 	// Initialise last values
  52:../Sources/PID.c **** 	lastError = 0.0;
 394              		.loc 1 52 0
 395 0050 124A     		ldr	r2, .L13+44
 396 0052 0D4B     		ldr	r3, .L13+24
 397 0054 0D4C     		ldr	r4, .L13+28
 398 0056 1360     		str	r3, [r2]
 399 0058 5460     		str	r4, [r2, #4]
  53:../Sources/PID.c **** 	llastError = 0.0;
 400              		.loc 1 53 0
 401 005a 114A     		ldr	r2, .L13+48
 402 005c 0A4B     		ldr	r3, .L13+24
 403 005e 0B4C     		ldr	r4, .L13+28
 404 0060 1360     		str	r3, [r2]
 405 0062 5460     		str	r4, [r2, #4]
  54:../Sources/PID.c **** 	lastOutput = 0;
 406              		.loc 1 54 0
 407 0064 0F4B     		ldr	r3, .L13+52
 408 0066 0022     		mov	r2, #0
 409 0068 1A60     		str	r2, [r3]
  55:../Sources/PID.c **** }
 410              		.loc 1 55 0
 411 006a BD46     		mov	sp, r7
 412 006c 05B0     		add	sp, sp, #20
 413              		@ sp needed for prologue
 414 006e 90BD     		pop	{r4, r7, pc}
 415              	.L14:
 416              		.align	3
 417              	.L13:
 418 0070 00000000 		.word	0
 419 0074 00000040 		.word	1073741824
 420 0078 00000000 		.word	0
 421 007c 00003440 		.word	1077149696
 422 0080 00000000 		.word	0
 423 0084 00001040 		.word	1074790400
 424 0088 00000000 		.word	0
 425 008c 00000000 		.word	0
 426 0090 00000000 		.word	kp
 427 0094 00000000 		.word	ki
 428 0098 00000000 		.word	kd
 429 009c 00000000 		.word	lastError
 430 00a0 00000000 		.word	llastError
 431 00a4 00000000 		.word	lastOutput
 432              		.cfi_endproc
 433              	.LFE1:
 435              		.text
 436              	.Letext0:
 437              		.file 2 "C:/Freescale/CW MCU v10.5/MCU/ARM_GCC_Support/ewl/EWL_C/include/cstdint"
 438              		.file 3 "C:/Users/Brent Dimmig/workspace/Freesnail/Project_Headers/Control.h"
 439              		.file 4 "C:/Users/Brent Dimmig/workspace/Freesnail/Project_Headers/LineScanCamera.h"
 440              		.file 5 "C:/Users/Brent Dimmig/workspace/Freesnail/Project_Headers/PID.h"
 441              		.file 6 "C:/Users/Brent Dimmig/workspace/Freesnail/Project_Headers/Accel.h"