   1              		.cpu cortex-m0
   2              		.fpu softvfp
   3              		.eabi_attribute 20, 1
   4              		.eabi_attribute 21, 1
   5              		.eabi_attribute 23, 3
   6              		.eabi_attribute 24, 1
   7              		.eabi_attribute 25, 1
   8              		.eabi_attribute 26, 1
   9              		.eabi_attribute 30, 6
  10              		.eabi_attribute 34, 0
  11              		.eabi_attribute 18, 4
  12              		.code	16
  13              		.file	"CrystalClock.c"
  14              		.text
  15              	.Ltext0:
  16              		.cfi_sections	.debug_frame
  17              		.comm	straight_speed,4,4
  18              		.comm	medium_speed,4,4
  19              		.comm	turn_speed,4,4
  20              		.comm	brake_speed,4,4
  21              		.comm	speedC,4,4
  22              		.comm	LineScanData,200,4
  23              		.comm	histogram,4096,4
  24              		.comm	kp,8,8
  25              		.comm	ki,8,8
  26              		.comm	kd,8,8
  27              		.comm	lastError,8,8
  28              		.comm	llastError,8,8
  29              		.comm	lastOutput,4,4
  30              		.comm	AccData,6,4
  31              		.comm	Xout,2,2
  32              		.comm	Yout,2,2
  33              		.comm	Zout,2,2
  34              		.comm	Xoffset,1,1
  35              		.comm	Yoffset,1,1
  36              		.comm	Zoffset,1,1
  37              		.comm	ramp,4,4
  38              		.comm	drs_val,1,1
  39              		.comm	dmx32_val,1,1
  40              		.section	.text.InitClock,"ax",%progbits
  41              		.align	2
  42              		.global	InitClock
  43              		.code	16
  44              		.thumb_func
  46              	InitClock:
  47              	.LFB0:
  48              		.file 1 "../Sources/system/CrystalClock.c"
   1:../Sources/system/CrystalClock.c **** #include "Config.h"
   2:../Sources/system/CrystalClock.c **** 
   3:../Sources/system/CrystalClock.c **** #if (defined(CW))
   4:../Sources/system/CrystalClock.c **** 	#include "cw.h"
   5:../Sources/system/CrystalClock.c **** #endif
   6:../Sources/system/CrystalClock.c **** 
   7:../Sources/system/CrystalClock.c **** // Constants for use in pll_init
   8:../Sources/system/CrystalClock.c **** #define NO_OSCINIT 0
   9:../Sources/system/CrystalClock.c **** #define OSCINIT 1
  10:../Sources/system/CrystalClock.c **** 
  11:../Sources/system/CrystalClock.c **** #define OSC_0 0
  12:../Sources/system/CrystalClock.c **** #define OSC_1 1
  13:../Sources/system/CrystalClock.c **** 
  14:../Sources/system/CrystalClock.c **** #define LOW_POWER 0
  15:../Sources/system/CrystalClock.c **** #define HIGH_GAIN 1
  16:../Sources/system/CrystalClock.c **** 
  17:../Sources/system/CrystalClock.c **** #define CANNED_OSC  0
  18:../Sources/system/CrystalClock.c **** #define CRYSTAL 1
  19:../Sources/system/CrystalClock.c **** 
  20:../Sources/system/CrystalClock.c **** #define PLL_0 0
  21:../Sources/system/CrystalClock.c **** #define PLL_1 1
  22:../Sources/system/CrystalClock.c **** 
  23:../Sources/system/CrystalClock.c **** #define PLL_ONLY 0
  24:../Sources/system/CrystalClock.c **** #define MCGOUT 1
  25:../Sources/system/CrystalClock.c **** 
  26:../Sources/system/CrystalClock.c **** // MCG Mode defines
  27:../Sources/system/CrystalClock.c **** 
  28:../Sources/system/CrystalClock.c **** #define BLPI 1
  29:../Sources/system/CrystalClock.c **** #define FBI  2
  30:../Sources/system/CrystalClock.c **** #define FEI  3
  31:../Sources/system/CrystalClock.c **** #define FEE  4
  32:../Sources/system/CrystalClock.c **** #define FBE  5
  33:../Sources/system/CrystalClock.c **** #define BLPE 6
  34:../Sources/system/CrystalClock.c **** #define PBE  7
  35:../Sources/system/CrystalClock.c **** #define PEE  8
  36:../Sources/system/CrystalClock.c **** 
  37:../Sources/system/CrystalClock.c **** // IRC defines
  38:../Sources/system/CrystalClock.c **** #define SLOW_IRC 0
  39:../Sources/system/CrystalClock.c **** #define FAST_IRC 1
  40:../Sources/system/CrystalClock.c **** 
  41:../Sources/system/CrystalClock.c **** 
  42:../Sources/system/CrystalClock.c **** unsigned char fll_rtc_init(unsigned char, unsigned char);
  43:../Sources/system/CrystalClock.c **** 
  44:../Sources/system/CrystalClock.c **** 
  45:../Sources/system/CrystalClock.c **** // prototypes
  46:../Sources/system/CrystalClock.c **** void rtc_as_refclk(void);
  47:../Sources/system/CrystalClock.c **** int fee_fei(int slow_irc_freq);
  48:../Sources/system/CrystalClock.c **** int fei_fbe(int crystal_val, unsigned char hgo_val, unsigned char erefs_val);
  49:../Sources/system/CrystalClock.c **** int fbe_fei(int slow_irc_freq);
  50:../Sources/system/CrystalClock.c **** int fei_fbi(int irc_freq, unsigned char irc_select);
  51:../Sources/system/CrystalClock.c **** int fbi_fei(int slow_irc_freq);
  52:../Sources/system/CrystalClock.c **** int fbe_pbe(int crystal_val, signed char prdiv_val, signed char vdiv_val);
  53:../Sources/system/CrystalClock.c **** int pbe_pee(int crystal_val);
  54:../Sources/system/CrystalClock.c **** int pee_pbe(int crystal_val);
  55:../Sources/system/CrystalClock.c **** int pbe_fbe(int crystal_val);
  56:../Sources/system/CrystalClock.c **** int fbe_fbi(int irc_freq, unsigned char irc_select);
  57:../Sources/system/CrystalClock.c **** int fbi_fbe(int crystal_val, unsigned char hgo_val, unsigned char erefs_val);
  58:../Sources/system/CrystalClock.c **** int fbi_fee(int crystal_val, unsigned char hgo_val, unsigned char erefs_val);
  59:../Sources/system/CrystalClock.c **** int fbe_fee(int crystal_val);
  60:../Sources/system/CrystalClock.c **** int fee_fbe(int crystal_val);
  61:../Sources/system/CrystalClock.c **** int pbe_blpe(int crystal_val);
  62:../Sources/system/CrystalClock.c **** int blpe_pbe(int crystal_val, signed char prdiv_val, signed char vdiv_val);
  63:../Sources/system/CrystalClock.c **** int blpe_fbe(int crystal_val);
  64:../Sources/system/CrystalClock.c **** int fbi_blpi(int irc_freq, unsigned char irc_select);
  65:../Sources/system/CrystalClock.c **** int blpi_fbi(int irc_freq, unsigned char irc_select);
  66:../Sources/system/CrystalClock.c **** int fei_fee(int crystal_val, unsigned char hgo_val, unsigned char erefs_val);
  67:../Sources/system/CrystalClock.c **** int fee_fbi(int irc_freq, unsigned char irc_select);
  68:../Sources/system/CrystalClock.c **** int fbe_blpe(int crystal_val);
  69:../Sources/system/CrystalClock.c **** 
  70:../Sources/system/CrystalClock.c **** int pll_init(int crystal_val, unsigned char hgo_val, unsigned char erefs_val, signed char prdiv_val
  71:../Sources/system/CrystalClock.c **** 
  72:../Sources/system/CrystalClock.c **** int fll_freq(int fll_ref);
  73:../Sources/system/CrystalClock.c **** unsigned char what_mcg_mode(void);
  74:../Sources/system/CrystalClock.c **** unsigned char atc(unsigned char irc_select, int irc_freq, int mcg_out_freq);
  75:../Sources/system/CrystalClock.c **** void clk_monitor_0(unsigned char en_dis);
  76:../Sources/system/CrystalClock.c **** 
  77:../Sources/system/CrystalClock.c **** 
  78:../Sources/system/CrystalClock.c **** 
  79:../Sources/system/CrystalClock.c **** 
  80:../Sources/system/CrystalClock.c **** // global variables
  81:../Sources/system/CrystalClock.c **** extern int core_clk_khz;
  82:../Sources/system/CrystalClock.c **** char drs_val, dmx32_val;
  83:../Sources/system/CrystalClock.c **** 
  84:../Sources/system/CrystalClock.c **** 
  85:../Sources/system/CrystalClock.c **** 
  86:../Sources/system/CrystalClock.c **** 
  87:../Sources/system/CrystalClock.c **** /*****************************************************************************
  88:../Sources/system/CrystalClock.c ****  * @name     pll_init
  89:../Sources/system/CrystalClock.c ****  *
  90:../Sources/system/CrystalClock.c ****  * @brief:   Initialization of the MCU.
  91:../Sources/system/CrystalClock.c ****  *
  92:../Sources/system/CrystalClock.c ****  * @param  : None
  93:../Sources/system/CrystalClock.c ****  *
  94:../Sources/system/CrystalClock.c ****  * @return : None
  95:../Sources/system/CrystalClock.c ****  *****************************************************************************
  96:../Sources/system/CrystalClock.c ****  * It will configure the MCU to disable STOP and COP Modules.
  97:../Sources/system/CrystalClock.c ****  * It also set the MCG configuration and bus clock frequency.
  98:../Sources/system/CrystalClock.c ****  ****************************************************************************/
  99:../Sources/system/CrystalClock.c **** void InitClock()
 100:../Sources/system/CrystalClock.c **** {
  49              		.loc 1 100 0
  50              		.cfi_startproc
  51 0000 80B5     		push	{r7, lr}
  52              	.LCFI0:
  53              		.cfi_def_cfa_offset 8
  54              		.cfi_offset 7, -8
  55              		.cfi_offset 14, -4
  56 0002 82B0     		sub	sp, sp, #8
  57              	.LCFI1:
  58              		.cfi_def_cfa_offset 16
  59 0004 02AF     		add	r7, sp, #8
  60              	.LCFI2:
  61              		.cfi_def_cfa 7, 8
 101:../Sources/system/CrystalClock.c **** 	pll_init(8000000, LOW_POWER, CRYSTAL, 4, 24, MCGOUT);
  62              		.loc 1 101 0
  63 0006 064B     		ldr	r3, .L2
  64 0008 1822     		mov	r2, #24
  65 000a 0092     		str	r2, [sp]
  66 000c 0122     		mov	r2, #1
  67 000e 0192     		str	r2, [sp, #4]
  68 0010 181C     		mov	r0, r3
  69 0012 0021     		mov	r1, #0
  70 0014 0122     		mov	r2, #1
  71 0016 0423     		mov	r3, #4
  72 0018 FFF7FEFF 		bl	pll_init
 102:../Sources/system/CrystalClock.c ****     	
 103:../Sources/system/CrystalClock.c ****     /************* USB Part **********************/
 104:../Sources/system/CrystalClock.c ****    	/*********************************************/   
 105:../Sources/system/CrystalClock.c ****    //	SIM_CLKDIV2 &= (uint32_t)(~(SIM_CLKDIV2_USBFRAC_MASK | SIM_CLKDIV2_USBDIV_MASK));
 106:../Sources/system/CrystalClock.c **** 
 107:../Sources/system/CrystalClock.c ****     /* Configure USBFRAC = 0, USBDIV = 0 => frq(USBout) = 1 / 1 * frq(PLLin) */
 108:../Sources/system/CrystalClock.c ****    	//SIM_CLKDIV2 = SIM_CLKDIV2_USBDIV(1);
 109:../Sources/system/CrystalClock.c ****    			    
 110:../Sources/system/CrystalClock.c ****    	/* Configure USB to be clocked from PLL */
 111:../Sources/system/CrystalClock.c ****    	//SIM_SOPT2  |= (SIM_SOPT2_USBSRC_MASK | SIM_SOPT2_PLLFLLSEL_MASK);
 112:../Sources/system/CrystalClock.c **** 
 113:../Sources/system/CrystalClock.c ****    	/* Enable USB-OTG IP clocking */
 114:../Sources/system/CrystalClock.c ****    	//SIM_SCGC4 |= (SIM_SCGC4_USBOTG_MASK); 
 115:../Sources/system/CrystalClock.c ****     			    
 116:../Sources/system/CrystalClock.c ****     			/* Configure enable USB regulator for device */
 117:../Sources/system/CrystalClock.c ****    //SIM_SOPT1 |= SIM_SOPT1_USBREGEN_MASK;
 118:../Sources/system/CrystalClock.c ****    			    
 119:../Sources/system/CrystalClock.c ****    //NVICICER2 |= (1<<9);	/* Clear any pending interrupts on USB */
 120:../Sources/system/CrystalClock.c **** //   NVICISER2 |= (1<<9);	/* Enable interrupts from USB module */	 
 121:../Sources/system/CrystalClock.c **** 
 122:../Sources/system/CrystalClock.c ****     	
 123:../Sources/system/CrystalClock.c ****     /* Now running PEE Mode */
 124:../Sources/system/CrystalClock.c **** 
 125:../Sources/system/CrystalClock.c **** 
 126:../Sources/system/CrystalClock.c **** }
  73              		.loc 1 126 0
  74 001c BD46     		mov	sp, r7
  75              		@ sp needed for prologue
  76 001e 80BD     		pop	{r7, pc}
  77              	.L3:
  78              		.align	2
  79              	.L2:
  80 0020 00127A00 		.word	8000000
  81              		.cfi_endproc
  82              	.LFE0:
  84              		.global	__aeabi_idiv
  85              		.section	.text.pll_init,"ax",%progbits
  86              		.align	2
  87              		.global	pll_init
  88              		.code	16
  89              		.thumb_func
  91              	pll_init:
  92              	.LFB1:
 127:../Sources/system/CrystalClock.c **** 
 128:../Sources/system/CrystalClock.c **** 
 129:../Sources/system/CrystalClock.c **** /*
 130:../Sources/system/CrystalClock.c ****  * File:    mcg.c
 131:../Sources/system/CrystalClock.c ****  *
 132:../Sources/system/CrystalClock.c ****  * MCG drivers for Freescale Kinetis L - series devices
 133:../Sources/system/CrystalClock.c ****  * Notes:
 134:../Sources/system/CrystalClock.c ****  * Assumes the MCG mode is in the default FEI mode out of reset
 135:../Sources/system/CrystalClock.c ****  */
 136:../Sources/system/CrystalClock.c **** 
 137:../Sources/system/CrystalClock.c **** #include "derivative.h"
 138:../Sources/system/CrystalClock.c **** #include "System.h"
 139:../Sources/system/CrystalClock.c **** 
 140:../Sources/system/CrystalClock.c **** 
 141:../Sources/system/CrystalClock.c **** 
 142:../Sources/system/CrystalClock.c **** 
 143:../Sources/system/CrystalClock.c **** /*********************************************************************************************/
 144:../Sources/system/CrystalClock.c **** /* Functon name : pll_init
 145:../Sources/system/CrystalClock.c ****  *
 146:../Sources/system/CrystalClock.c ****  * Mode transition: Option to move from FEI to PEE mode or to just initialize the PLL
 147:../Sources/system/CrystalClock.c ****  *
 148:../Sources/system/CrystalClock.c ****  * This function initializess PLL0. Either OSC0 is selected for the
 149:../Sources/system/CrystalClock.c ****  * reference clock source. The oscillators can be configured to use a crystal or take in an
 150:../Sources/system/CrystalClock.c ****  * external square wave clock.
 151:../Sources/system/CrystalClock.c ****  * Using the function parameter names the PLL frequency is calculated as follows:
 152:../Sources/system/CrystalClock.c ****  * PLL freq = ((crystal_val / prdiv_val) * vdiv_val)
 153:../Sources/system/CrystalClock.c ****  * Refer to the readme file in the mcg driver directory for examples of pll_init configurations.
 154:../Sources/system/CrystalClock.c ****  * All parameters must be provided, for example crystal_val must be provided even if the
 155:../Sources/system/CrystalClock.c ****  * oscillator associated with that parameter is already initialized.
 156:../Sources/system/CrystalClock.c ****  * The various passed parameters are checked to ensure they are within the allowed range. If any
 157:../Sources/system/CrystalClock.c ****  * of these checks fail the driver will exit and return a fail/error code. An error code will
 158:../Sources/system/CrystalClock.c ****  * also be returned if any error occurs during the PLL initialization sequence. Refer to the
 159:../Sources/system/CrystalClock.c ****  * readme file in the mcg driver directory for a list of all these codes.
 160:../Sources/system/CrystalClock.c ****  *
 161:../Sources/system/CrystalClock.c ****  * Parameters: crystal_val - external clock frequency in Hz either from a crystal or square
 162:../Sources/system/CrystalClock.c ****  *                           wave clock source
 163:../Sources/system/CrystalClock.c ****  *             hgo_val     - selects whether low power or high gain mode is selected
 164:../Sources/system/CrystalClock.c ****  *                           for the crystal oscillator. This has no meaning if an
 165:../Sources/system/CrystalClock.c ****  *                           external clock is used.
 166:../Sources/system/CrystalClock.c ****  *             erefs_val   - selects external clock (=0) or crystal osc (=1)
 167:../Sources/system/CrystalClock.c ****  *             prdiv_val   - value to divide the external clock source by to create the desired
 168:../Sources/system/CrystalClock.c ****  *                           PLL reference clock frequency
 169:../Sources/system/CrystalClock.c ****  *             vdiv_val    - value to multiply the PLL reference clock frequency by
 170:../Sources/system/CrystalClock.c ****  *             mcgout_select  - 0 if the PLL is just to be enabled, non-zero if the PLL is used
 171:../Sources/system/CrystalClock.c ****  *                              to provide the MCGOUT clock for the system.
 172:../Sources/system/CrystalClock.c ****  *
 173:../Sources/system/CrystalClock.c ****  * Return value : PLL frequency (Hz) or error code
 174:../Sources/system/CrystalClock.c ****  */
 175:../Sources/system/CrystalClock.c **** 
 176:../Sources/system/CrystalClock.c **** int pll_init(int crystal_val, unsigned char hgo_val, unsigned char erefs_val, signed char prdiv_val
 177:../Sources/system/CrystalClock.c **** {
  93              		.loc 1 177 0
  94              		.cfi_startproc
  95 0000 80B5     		push	{r7, lr}
  96              	.LCFI3:
  97              		.cfi_def_cfa_offset 8
  98              		.cfi_offset 7, -8
  99              		.cfi_offset 14, -4
 100 0002 86B0     		sub	sp, sp, #24
 101              	.LCFI4:
 102              		.cfi_def_cfa_offset 32
 103 0004 00AF     		add	r7, sp, #0
 104              	.LCFI5:
 105              		.cfi_def_cfa_register 7
 106 0006 7860     		str	r0, [r7, #4]
 107 0008 081C     		mov	r0, r1
 108 000a 111C     		mov	r1, r2
 109 000c 1A1C     		mov	r2, r3
 110 000e FB1C     		add	r3, r7, #3
 111 0010 1870     		strb	r0, [r3]
 112 0012 BB1C     		add	r3, r7, #2
 113 0014 1970     		strb	r1, [r3]
 114 0016 7B1C     		add	r3, r7, #1
 115 0018 1A70     		strb	r2, [r3]
 178:../Sources/system/CrystalClock.c ****   unsigned char frdiv_val;
 179:../Sources/system/CrystalClock.c ****   unsigned char temp_reg;
 180:../Sources/system/CrystalClock.c ****   unsigned char prdiv, vdiv;
 181:../Sources/system/CrystalClock.c ****   short i;
 182:../Sources/system/CrystalClock.c ****   int ref_freq;
 183:../Sources/system/CrystalClock.c ****   int pll_freq;
 184:../Sources/system/CrystalClock.c **** 
 185:../Sources/system/CrystalClock.c ****   // check if in FEI mode
 186:../Sources/system/CrystalClock.c ****   if (!((((MCG_S & MCG_S_CLKST_MASK) >> MCG_S_CLKST_SHIFT) == 0x0) && // check CLKS mux has selcted
 116              		.loc 1 186 0
 117 001a C24B     		ldr	r3, .L64
 118 001c 9B79     		ldrb	r3, [r3, #6]
 119 001e DBB2     		uxtb	r3, r3
 120 0020 1A1C     		mov	r2, r3
 121 0022 0C23     		mov	r3, #12
 122 0024 1340     		and	r3, r2
 123 0026 9B08     		lsr	r3, r3, #2
 124 0028 0DD1     		bne	.L5
 187:../Sources/system/CrystalClock.c ****       (MCG_S & MCG_S_IREFST_MASK) &&                                  // check FLL ref is internal 
 125              		.loc 1 187 0
 126 002a BE4B     		ldr	r3, .L64
 127 002c 9B79     		ldrb	r3, [r3, #6]
 128 002e DBB2     		uxtb	r3, r3
 129 0030 1A1C     		mov	r2, r3
 130 0032 1023     		mov	r3, #16
 131 0034 1340     		and	r3, r2
 186:../Sources/system/CrystalClock.c ****   if (!((((MCG_S & MCG_S_CLKST_MASK) >> MCG_S_CLKST_SHIFT) == 0x0) && // check CLKS mux has selcted
 132              		.loc 1 186 0
 133 0036 06D0     		beq	.L5
 188:../Sources/system/CrystalClock.c ****       (!(MCG_S & MCG_S_PLLST_MASK))))                                 // check PLLS mux has selecte
 134              		.loc 1 188 0
 135 0038 BA4B     		ldr	r3, .L64
 136 003a 9B79     		ldrb	r3, [r3, #6]
 137 003c DBB2     		uxtb	r3, r3
 138 003e 1A1C     		mov	r2, r3
 139 0040 2023     		mov	r3, #32
 140 0042 1340     		and	r3, r2
 186:../Sources/system/CrystalClock.c ****   if (!((((MCG_S & MCG_S_CLKST_MASK) >> MCG_S_CLKST_SHIFT) == 0x0) && // check CLKS mux has selcted
 141              		.loc 1 186 0
 142 0044 01D0     		beq	.L6
 143              	.L5:
 189:../Sources/system/CrystalClock.c ****   {
 190:../Sources/system/CrystalClock.c ****     return 0x1;                                                     // return error code
 144              		.loc 1 190 0
 145 0046 0123     		mov	r3, #1
 146 0048 73E2     		b	.L7
 147              	.L6:
 191:../Sources/system/CrystalClock.c ****   }
 192:../Sources/system/CrystalClock.c **** 
 193:../Sources/system/CrystalClock.c ****   // check external frequency is less than the maximum frequency
 194:../Sources/system/CrystalClock.c ****   if  (crystal_val > 50000000) {return 0x21;}
 148              		.loc 1 194 0
 149 004a 7A68     		ldr	r2, [r7, #4]
 150 004c B64B     		ldr	r3, .L64+4
 151 004e 9A42     		cmp	r2, r3
 152 0050 01DD     		ble	.L8
 153              		.loc 1 194 0 is_stmt 0
 154 0052 2123     		mov	r3, #33
 155 0054 6DE2     		b	.L7
 156              	.L8:
 195:../Sources/system/CrystalClock.c **** 
 196:../Sources/system/CrystalClock.c ****   // check crystal frequency is within spec. if crystal osc is being used as PLL ref
 197:../Sources/system/CrystalClock.c ****   if (erefs_val)
 157              		.loc 1 197 0 is_stmt 1
 158 0056 BB1C     		add	r3, r7, #2
 159 0058 1B78     		ldrb	r3, [r3]
 160 005a 002B     		cmp	r3, #0
 161 005c 09D0     		beq	.L9
 198:../Sources/system/CrystalClock.c ****   {
 199:../Sources/system/CrystalClock.c ****     if ((crystal_val < 3000000) || (crystal_val > 32000000)) {return 0x22;} // return 1 if one of t
 162              		.loc 1 199 0
 163 005e 7A68     		ldr	r2, [r7, #4]
 164 0060 B24B     		ldr	r3, .L64+8
 165 0062 9A42     		cmp	r2, r3
 166 0064 03DD     		ble	.L10
 167              		.loc 1 199 0 is_stmt 0
 168 0066 7A68     		ldr	r2, [r7, #4]
 169 0068 B14B     		ldr	r3, .L64+12
 170 006a 9A42     		cmp	r2, r3
 171 006c 01DD     		ble	.L9
 172              	.L10:
 173              		.loc 1 199 0
 174 006e 2223     		mov	r3, #34
 175 0070 5FE2     		b	.L7
 176              	.L9:
 200:../Sources/system/CrystalClock.c ****   }
 201:../Sources/system/CrystalClock.c **** 
 202:../Sources/system/CrystalClock.c ****   // make sure HGO will never be greater than 1. Could return an error instead if desired.
 203:../Sources/system/CrystalClock.c ****   if (hgo_val > 0)
 177              		.loc 1 203 0 is_stmt 1
 178 0072 FB1C     		add	r3, r7, #3
 179 0074 1B78     		ldrb	r3, [r3]
 180 0076 002B     		cmp	r3, #0
 181 0078 02D0     		beq	.L11
 204:../Sources/system/CrystalClock.c ****   {
 205:../Sources/system/CrystalClock.c ****     hgo_val = 1; // force hgo_val to 1 if > 0
 182              		.loc 1 205 0
 183 007a FB1C     		add	r3, r7, #3
 184 007c 0122     		mov	r2, #1
 185 007e 1A70     		strb	r2, [r3]
 186              	.L11:
 206:../Sources/system/CrystalClock.c ****   }
 207:../Sources/system/CrystalClock.c **** 
 208:../Sources/system/CrystalClock.c ****   // Check PLL divider settings are within spec.
 209:../Sources/system/CrystalClock.c ****   if ((prdiv_val < 1) || (prdiv_val > 25)) {return 0x41;}
 187              		.loc 1 209 0
 188 0080 7B1C     		add	r3, r7, #1
 189 0082 1B78     		ldrb	r3, [r3]
 190 0084 5BB2     		sxtb	r3, r3
 191 0086 002B     		cmp	r3, #0
 192 0088 04DD     		ble	.L12
 193              		.loc 1 209 0 is_stmt 0
 194 008a 7B1C     		add	r3, r7, #1
 195 008c 1B78     		ldrb	r3, [r3]
 196 008e 5BB2     		sxtb	r3, r3
 197 0090 192B     		cmp	r3, #25
 198 0092 01DD     		ble	.L13
 199              	.L12:
 200              		.loc 1 209 0
 201 0094 4123     		mov	r3, #65
 202 0096 4CE2     		b	.L7
 203              	.L13:
 210:../Sources/system/CrystalClock.c ****   if ((vdiv_val < 24) || (vdiv_val > 50)) {return 0x42;}
 204              		.loc 1 210 0 is_stmt 1
 205 0098 3B1C     		mov	r3, r7
 206 009a 2033     		add	r3, r3, #32
 207 009c 1B78     		ldrb	r3, [r3]
 208 009e 5BB2     		sxtb	r3, r3
 209 00a0 172B     		cmp	r3, #23
 210 00a2 05DD     		ble	.L14
 211              		.loc 1 210 0 is_stmt 0
 212 00a4 3B1C     		mov	r3, r7
 213 00a6 2033     		add	r3, r3, #32
 214 00a8 1B78     		ldrb	r3, [r3]
 215 00aa 5BB2     		sxtb	r3, r3
 216 00ac 322B     		cmp	r3, #50
 217 00ae 01DD     		ble	.L15
 218              	.L14:
 219              		.loc 1 210 0
 220 00b0 4223     		mov	r3, #66
 221 00b2 3EE2     		b	.L7
 222              	.L15:
 211:../Sources/system/CrystalClock.c **** 
 212:../Sources/system/CrystalClock.c ****   // Check PLL reference clock frequency is within spec.
 213:../Sources/system/CrystalClock.c ****   ref_freq = crystal_val / prdiv_val;
 223              		.loc 1 213 0 is_stmt 1
 224 00b4 7B1C     		add	r3, r7, #1
 225 00b6 1B78     		ldrb	r3, [r3]
 226 00b8 5BB2     		sxtb	r3, r3
 227 00ba 7868     		ldr	r0, [r7, #4]
 228 00bc 191C     		mov	r1, r3
 229 00be FFF7FEFF 		bl	__aeabi_idiv
 230 00c2 031C     		mov	r3, r0
 231 00c4 3B61     		str	r3, [r7, #16]
 214:../Sources/system/CrystalClock.c ****   if ((ref_freq < 2000000) || (ref_freq > 4000000)) {return 0x43;}
 232              		.loc 1 214 0
 233 00c6 3A69     		ldr	r2, [r7, #16]
 234 00c8 9A4B     		ldr	r3, .L64+16
 235 00ca 9A42     		cmp	r2, r3
 236 00cc 03DD     		ble	.L16
 237              		.loc 1 214 0 is_stmt 0
 238 00ce 3A69     		ldr	r2, [r7, #16]
 239 00d0 994B     		ldr	r3, .L64+20
 240 00d2 9A42     		cmp	r2, r3
 241 00d4 01DD     		ble	.L17
 242              	.L16:
 243              		.loc 1 214 0
 244 00d6 4323     		mov	r3, #67
 245 00d8 2BE2     		b	.L7
 246              	.L17:
 215:../Sources/system/CrystalClock.c **** 
 216:../Sources/system/CrystalClock.c ****   // Check PLL output frequency is within spec.
 217:../Sources/system/CrystalClock.c ****   pll_freq = (crystal_val / prdiv_val) * vdiv_val;
 247              		.loc 1 217 0 is_stmt 1
 248 00da 7B1C     		add	r3, r7, #1
 249 00dc 1B78     		ldrb	r3, [r3]
 250 00de 5BB2     		sxtb	r3, r3
 251 00e0 7868     		ldr	r0, [r7, #4]
 252 00e2 191C     		mov	r1, r3
 253 00e4 FFF7FEFF 		bl	__aeabi_idiv
 254 00e8 031C     		mov	r3, r0
 255 00ea 3A1C     		mov	r2, r7
 256 00ec 2032     		add	r2, r2, #32
 257 00ee 1278     		ldrb	r2, [r2]
 258 00f0 52B2     		sxtb	r2, r2
 259 00f2 5343     		mul	r3, r2
 260 00f4 FB60     		str	r3, [r7, #12]
 218:../Sources/system/CrystalClock.c ****   if ((pll_freq < 48000000) || (pll_freq > 100000000)) {return 0x45;}
 261              		.loc 1 218 0
 262 00f6 FA68     		ldr	r2, [r7, #12]
 263 00f8 904B     		ldr	r3, .L64+24
 264 00fa 9A42     		cmp	r2, r3
 265 00fc 03DD     		ble	.L18
 266              		.loc 1 218 0 is_stmt 0
 267 00fe FA68     		ldr	r2, [r7, #12]
 268 0100 8F4B     		ldr	r3, .L64+28
 269 0102 9A42     		cmp	r2, r3
 270 0104 01DD     		ble	.L19
 271              	.L18:
 272              		.loc 1 218 0
 273 0106 4523     		mov	r3, #69
 274 0108 13E2     		b	.L7
 275              	.L19:
 219:../Sources/system/CrystalClock.c **** 
 220:../Sources/system/CrystalClock.c ****   // configure the MCG_C2 register
 221:../Sources/system/CrystalClock.c ****   // the RANGE value is determined by the external frequency. Since the RANGE parameter affects the
 222:../Sources/system/CrystalClock.c ****   // it still needs to be set correctly even if the oscillator is not being used
 223:../Sources/system/CrystalClock.c ****       
 224:../Sources/system/CrystalClock.c ****   temp_reg = MCG_C2;
 276              		.loc 1 224 0 is_stmt 1
 277 010a 864A     		ldr	r2, .L64
 278 010c 3B1C     		mov	r3, r7
 279 010e 1633     		add	r3, r3, #22
 280 0110 5278     		ldrb	r2, [r2, #1]
 281 0112 1A70     		strb	r2, [r3]
 225:../Sources/system/CrystalClock.c ****   temp_reg &= ~(MCG_C2_RANGE0_MASK | MCG_C2_HGO0_MASK | MCG_C2_EREFS0_MASK); // clear fields before
 282              		.loc 1 225 0
 283 0114 3B1C     		mov	r3, r7
 284 0116 1633     		add	r3, r3, #22
 285 0118 3A1C     		mov	r2, r7
 286 011a 1632     		add	r2, r2, #22
 287 011c 1278     		ldrb	r2, [r2]
 288 011e 3C21     		mov	r1, #60
 289 0120 8A43     		bic	r2, r1
 290 0122 1A70     		strb	r2, [r3]
 226:../Sources/system/CrystalClock.c ****     
 227:../Sources/system/CrystalClock.c ****   if (crystal_val <= 8000000)
 291              		.loc 1 227 0
 292 0124 7A68     		ldr	r2, [r7, #4]
 293 0126 874B     		ldr	r3, .L64+32
 294 0128 9A42     		cmp	r2, r3
 295 012a 14DC     		bgt	.L20
 228:../Sources/system/CrystalClock.c ****   {
 229:../Sources/system/CrystalClock.c ****     temp_reg |= (MCG_C2_RANGE0(1) | (hgo_val << MCG_C2_HGO0_SHIFT) | (erefs_val << MCG_C2_EREFS0_SH
 296              		.loc 1 229 0
 297 012c FB1C     		add	r3, r7, #3
 298 012e 1B78     		ldrb	r3, [r3]
 299 0130 DB00     		lsl	r3, r3, #3
 300 0132 DAB2     		uxtb	r2, r3
 301 0134 BB1C     		add	r3, r7, #2
 302 0136 1B78     		ldrb	r3, [r3]
 303 0138 9B00     		lsl	r3, r3, #2
 304 013a DBB2     		uxtb	r3, r3
 305 013c 1343     		orr	r3, r2
 306 013e DAB2     		uxtb	r2, r3
 307 0140 3B1C     		mov	r3, r7
 308 0142 1633     		add	r3, r3, #22
 309 0144 1B78     		ldrb	r3, [r3]
 310 0146 1343     		orr	r3, r2
 311 0148 DAB2     		uxtb	r2, r3
 312 014a 3B1C     		mov	r3, r7
 313 014c 1633     		add	r3, r3, #22
 314 014e 1021     		mov	r1, #16
 315 0150 0A43     		orr	r2, r1
 316 0152 1A70     		strb	r2, [r3]
 317 0154 13E0     		b	.L21
 318              	.L20:
 230:../Sources/system/CrystalClock.c ****   }
 231:../Sources/system/CrystalClock.c ****   else
 232:../Sources/system/CrystalClock.c ****   {
 233:../Sources/system/CrystalClock.c ****     temp_reg |= (MCG_C2_RANGE0(2) | (hgo_val << MCG_C2_HGO0_SHIFT) | (erefs_val << MCG_C2_EREFS0_SH
 319              		.loc 1 233 0
 320 0156 FB1C     		add	r3, r7, #3
 321 0158 1B78     		ldrb	r3, [r3]
 322 015a DB00     		lsl	r3, r3, #3
 323 015c DAB2     		uxtb	r2, r3
 324 015e BB1C     		add	r3, r7, #2
 325 0160 1B78     		ldrb	r3, [r3]
 326 0162 9B00     		lsl	r3, r3, #2
 327 0164 DBB2     		uxtb	r3, r3
 328 0166 1343     		orr	r3, r2
 329 0168 DAB2     		uxtb	r2, r3
 330 016a 3B1C     		mov	r3, r7
 331 016c 1633     		add	r3, r3, #22
 332 016e 1B78     		ldrb	r3, [r3]
 333 0170 1343     		orr	r3, r2
 334 0172 DAB2     		uxtb	r2, r3
 335 0174 3B1C     		mov	r3, r7
 336 0176 1633     		add	r3, r3, #22
 337 0178 2021     		mov	r1, #32
 338 017a 0A43     		orr	r2, r1
 339 017c 1A70     		strb	r2, [r3]
 340              	.L21:
 234:../Sources/system/CrystalClock.c ****   }
 235:../Sources/system/CrystalClock.c ****   MCG_C2 = temp_reg;
 341              		.loc 1 235 0
 342 017e 694B     		ldr	r3, .L64
 343 0180 3A1C     		mov	r2, r7
 344 0182 1632     		add	r2, r2, #22
 345 0184 1278     		ldrb	r2, [r2]
 346 0186 5A70     		strb	r2, [r3, #1]
 236:../Sources/system/CrystalClock.c ****   
 237:../Sources/system/CrystalClock.c ****   // determine FRDIV based on reference clock frequency
 238:../Sources/system/CrystalClock.c ****   // since the external frequency has already been checked only the maximum frequency for each FRDI
 239:../Sources/system/CrystalClock.c ****   if (crystal_val <= 1250000) {frdiv_val = 0;}
 347              		.loc 1 239 0
 348 0188 7A68     		ldr	r2, [r7, #4]
 349 018a 6F4B     		ldr	r3, .L64+36
 350 018c 9A42     		cmp	r2, r3
 351 018e 04DC     		bgt	.L22
 352              		.loc 1 239 0 is_stmt 0
 353 0190 3B1C     		mov	r3, r7
 354 0192 1733     		add	r3, r3, #23
 355 0194 0022     		mov	r2, #0
 356 0196 1A70     		strb	r2, [r3]
 357 0198 27E0     		b	.L23
 358              	.L22:
 240:../Sources/system/CrystalClock.c ****   else if (crystal_val <= 2500000) {frdiv_val = 1;}
 359              		.loc 1 240 0 is_stmt 1
 360 019a 7A68     		ldr	r2, [r7, #4]
 361 019c 6B4B     		ldr	r3, .L64+40
 362 019e 9A42     		cmp	r2, r3
 363 01a0 04DC     		bgt	.L24
 364              		.loc 1 240 0 is_stmt 0
 365 01a2 3B1C     		mov	r3, r7
 366 01a4 1733     		add	r3, r3, #23
 367 01a6 0122     		mov	r2, #1
 368 01a8 1A70     		strb	r2, [r3]
 369 01aa 1EE0     		b	.L23
 370              	.L24:
 241:../Sources/system/CrystalClock.c ****   else if (crystal_val <= 5000000) {frdiv_val = 2;}
 371              		.loc 1 241 0 is_stmt 1
 372 01ac 7A68     		ldr	r2, [r7, #4]
 373 01ae 684B     		ldr	r3, .L64+44
 374 01b0 9A42     		cmp	r2, r3
 375 01b2 04DC     		bgt	.L25
 376              		.loc 1 241 0 is_stmt 0
 377 01b4 3B1C     		mov	r3, r7
 378 01b6 1733     		add	r3, r3, #23
 379 01b8 0222     		mov	r2, #2
 380 01ba 1A70     		strb	r2, [r3]
 381 01bc 15E0     		b	.L23
 382              	.L25:
 242:../Sources/system/CrystalClock.c ****   else if (crystal_val <= 10000000) {frdiv_val = 3;}
 383              		.loc 1 242 0 is_stmt 1
 384 01be 7A68     		ldr	r2, [r7, #4]
 385 01c0 644B     		ldr	r3, .L64+48
 386 01c2 9A42     		cmp	r2, r3
 387 01c4 04DC     		bgt	.L26
 388              		.loc 1 242 0 is_stmt 0
 389 01c6 3B1C     		mov	r3, r7
 390 01c8 1733     		add	r3, r3, #23
 391 01ca 0322     		mov	r2, #3
 392 01cc 1A70     		strb	r2, [r3]
 393 01ce 0CE0     		b	.L23
 394              	.L26:
 243:../Sources/system/CrystalClock.c ****   else if (crystal_val <= 20000000) {frdiv_val = 4;}
 395              		.loc 1 243 0 is_stmt 1
 396 01d0 7A68     		ldr	r2, [r7, #4]
 397 01d2 614B     		ldr	r3, .L64+52
 398 01d4 9A42     		cmp	r2, r3
 399 01d6 04DC     		bgt	.L27
 400              		.loc 1 243 0 is_stmt 0
 401 01d8 3B1C     		mov	r3, r7
 402 01da 1733     		add	r3, r3, #23
 403 01dc 0422     		mov	r2, #4
 404 01de 1A70     		strb	r2, [r3]
 405 01e0 03E0     		b	.L23
 406              	.L27:
 244:../Sources/system/CrystalClock.c ****   else {frdiv_val = 5;}
 407              		.loc 1 244 0 is_stmt 1
 408 01e2 3B1C     		mov	r3, r7
 409 01e4 1733     		add	r3, r3, #23
 410 01e6 0522     		mov	r2, #5
 411 01e8 1A70     		strb	r2, [r3]
 412              	.L23:
 245:../Sources/system/CrystalClock.c **** 
 246:../Sources/system/CrystalClock.c ****   // Select external oscillator and Reference Divider and clear IREFS to start ext osc
 247:../Sources/system/CrystalClock.c ****   // If IRCLK is required it must be enabled outside of this driver, existing state will be maintai
 248:../Sources/system/CrystalClock.c ****   // CLKS=2, FRDIV=frdiv_val, IREFS=0, IRCLKEN=0, IREFSTEN=0
 249:../Sources/system/CrystalClock.c ****   temp_reg = MCG_C1;
 413              		.loc 1 249 0
 414 01ea 4E4A     		ldr	r2, .L64
 415 01ec 3B1C     		mov	r3, r7
 416 01ee 1633     		add	r3, r3, #22
 417 01f0 1278     		ldrb	r2, [r2]
 418 01f2 1A70     		strb	r2, [r3]
 250:../Sources/system/CrystalClock.c ****   temp_reg &= ~(MCG_C1_CLKS_MASK | MCG_C1_FRDIV_MASK | MCG_C1_IREFS_MASK); // Clear values in these
 419              		.loc 1 250 0
 420 01f4 3B1C     		mov	r3, r7
 421 01f6 1633     		add	r3, r3, #22
 422 01f8 3A1C     		mov	r2, r7
 423 01fa 1632     		add	r2, r2, #22
 424 01fc 1178     		ldrb	r1, [r2]
 425 01fe 0322     		mov	r2, #3
 426 0200 0A40     		and	r2, r1
 427 0202 1A70     		strb	r2, [r3]
 251:../Sources/system/CrystalClock.c ****   temp_reg |= (MCG_C1_CLKS(2) | MCG_C1_FRDIV(frdiv_val)); // Set the required CLKS and FRDIV values
 428              		.loc 1 251 0
 429 0204 3B1C     		mov	r3, r7
 430 0206 1733     		add	r3, r3, #23
 431 0208 1B78     		ldrb	r3, [r3]
 432 020a DB00     		lsl	r3, r3, #3
 433 020c DAB2     		uxtb	r2, r3
 434 020e 3823     		mov	r3, #56
 435 0210 1340     		and	r3, r2
 436 0212 DAB2     		uxtb	r2, r3
 437 0214 3B1C     		mov	r3, r7
 438 0216 1633     		add	r3, r3, #22
 439 0218 1B78     		ldrb	r3, [r3]
 440 021a 1343     		orr	r3, r2
 441 021c DAB2     		uxtb	r2, r3
 442 021e 3B1C     		mov	r3, r7
 443 0220 1633     		add	r3, r3, #22
 444 0222 8021     		mov	r1, #128
 445 0224 4942     		neg	r1, r1
 446 0226 0A43     		orr	r2, r1
 447 0228 1A70     		strb	r2, [r3]
 252:../Sources/system/CrystalClock.c ****   MCG_C1 = temp_reg;
 448              		.loc 1 252 0
 449 022a 3E4B     		ldr	r3, .L64
 450 022c 3A1C     		mov	r2, r7
 451 022e 1632     		add	r2, r2, #22
 452 0230 1278     		ldrb	r2, [r2]
 453 0232 1A70     		strb	r2, [r3]
 253:../Sources/system/CrystalClock.c **** 
 254:../Sources/system/CrystalClock.c ****   // if the external oscillator is used need to wait for OSCINIT to set
 255:../Sources/system/CrystalClock.c ****   if (erefs_val)
 454              		.loc 1 255 0
 455 0234 BB1C     		add	r3, r7, #2
 456 0236 1B78     		ldrb	r3, [r3]
 457 0238 002B     		cmp	r3, #0
 458 023a 24D0     		beq	.L28
 256:../Sources/system/CrystalClock.c ****   {
 257:../Sources/system/CrystalClock.c ****     for (i = 0 ; i < 20000 ; i++)
 459              		.loc 1 257 0
 460 023c 3B1C     		mov	r3, r7
 461 023e 1433     		add	r3, r3, #20
 462 0240 0022     		mov	r2, #0
 463 0242 1A80     		strh	r2, [r3]
 464 0244 0DE0     		b	.L29
 465              	.L32:
 258:../Sources/system/CrystalClock.c ****     {
 259:../Sources/system/CrystalClock.c ****       if (MCG_S & MCG_S_OSCINIT0_MASK) break; // jump out early if OSCINIT sets before loop finishe
 466              		.loc 1 259 0
 467 0246 374B     		ldr	r3, .L64
 468 0248 9B79     		ldrb	r3, [r3, #6]
 469 024a DBB2     		uxtb	r3, r3
 470 024c 1A1C     		mov	r2, r3
 471 024e 0223     		mov	r3, #2
 472 0250 1340     		and	r3, r2
 473 0252 0ED1     		bne	.L58
 474              	.L30:
 257:../Sources/system/CrystalClock.c ****     for (i = 0 ; i < 20000 ; i++)
 475              		.loc 1 257 0
 476 0254 3B1C     		mov	r3, r7
 477 0256 1433     		add	r3, r3, #20
 478 0258 3A1C     		mov	r2, r7
 479 025a 1432     		add	r2, r2, #20
 480 025c 1288     		ldrh	r2, [r2]
 481 025e 0132     		add	r2, r2, #1
 482 0260 1A80     		strh	r2, [r3]
 483              	.L29:
 257:../Sources/system/CrystalClock.c ****     for (i = 0 ; i < 20000 ; i++)
 484              		.loc 1 257 0 is_stmt 0
 485 0262 3B1C     		mov	r3, r7
 486 0264 1433     		add	r3, r3, #20
 487 0266 0021     		mov	r1, #0
 488 0268 5A5E     		ldrsh	r2, [r3, r1]
 489 026a 3C4B     		ldr	r3, .L64+56
 490 026c 9A42     		cmp	r2, r3
 491 026e EADD     		ble	.L32
 492 0270 00E0     		b	.L31
 493              	.L58:
 494              		.loc 1 259 0 is_stmt 1
 495 0272 C046     		mov	r8, r8
 496              	.L31:
 260:../Sources/system/CrystalClock.c ****     }
 261:../Sources/system/CrystalClock.c ****   if (!(MCG_S & MCG_S_OSCINIT0_MASK)) return 0x23; // check bit is really set and return with error
 497              		.loc 1 261 0
 498 0274 2B4B     		ldr	r3, .L64
 499 0276 9B79     		ldrb	r3, [r3, #6]
 500 0278 DBB2     		uxtb	r3, r3
 501 027a 1A1C     		mov	r2, r3
 502 027c 0223     		mov	r3, #2
 503 027e 1340     		and	r3, r2
 504 0280 01D1     		bne	.L28
 505              		.loc 1 261 0 is_stmt 0
 506 0282 2323     		mov	r3, #35
 507 0284 55E1     		b	.L7
 508              	.L28:
 262:../Sources/system/CrystalClock.c ****   }
 263:../Sources/system/CrystalClock.c **** 
 264:../Sources/system/CrystalClock.c ****   // wait for Reference clock Status bit to clear
 265:../Sources/system/CrystalClock.c ****   for (i = 0 ; i < 2000 ; i++)
 509              		.loc 1 265 0 is_stmt 1
 510 0286 3B1C     		mov	r3, r7
 511 0288 1433     		add	r3, r3, #20
 512 028a 0022     		mov	r2, #0
 513 028c 1A80     		strh	r2, [r3]
 514 028e 0DE0     		b	.L33
 515              	.L36:
 266:../Sources/system/CrystalClock.c ****   {
 267:../Sources/system/CrystalClock.c ****     if (!(MCG_S & MCG_S_IREFST_MASK)) break; // jump out early if IREFST clears before loop finishe
 516              		.loc 1 267 0
 517 0290 244B     		ldr	r3, .L64
 518 0292 9B79     		ldrb	r3, [r3, #6]
 519 0294 DBB2     		uxtb	r3, r3
 520 0296 1A1C     		mov	r2, r3
 521 0298 1023     		mov	r3, #16
 522 029a 1340     		and	r3, r2
 523 029c 0ED0     		beq	.L59
 524              	.L34:
 265:../Sources/system/CrystalClock.c ****   for (i = 0 ; i < 2000 ; i++)
 525              		.loc 1 265 0
 526 029e 3B1C     		mov	r3, r7
 527 02a0 1433     		add	r3, r3, #20
 528 02a2 3A1C     		mov	r2, r7
 529 02a4 1432     		add	r2, r2, #20
 530 02a6 1288     		ldrh	r2, [r2]
 531 02a8 0132     		add	r2, r2, #1
 532 02aa 1A80     		strh	r2, [r3]
 533              	.L33:
 265:../Sources/system/CrystalClock.c ****   for (i = 0 ; i < 2000 ; i++)
 534              		.loc 1 265 0 is_stmt 0
 535 02ac 3B1C     		mov	r3, r7
 536 02ae 1433     		add	r3, r3, #20
 537 02b0 0021     		mov	r1, #0
 538 02b2 5A5E     		ldrsh	r2, [r3, r1]
 539 02b4 2A4B     		ldr	r3, .L64+60
 540 02b6 9A42     		cmp	r2, r3
 541 02b8 EADD     		ble	.L36
 542 02ba 00E0     		b	.L35
 543              	.L59:
 544              		.loc 1 267 0 is_stmt 1
 545 02bc C046     		mov	r8, r8
 546              	.L35:
 268:../Sources/system/CrystalClock.c ****   }
 269:../Sources/system/CrystalClock.c ****   if (MCG_S & MCG_S_IREFST_MASK) return 0x11; // check bit is really clear and return with error if
 547              		.loc 1 269 0
 548 02be 194B     		ldr	r3, .L64
 549 02c0 9B79     		ldrb	r3, [r3, #6]
 550 02c2 DBB2     		uxtb	r3, r3
 551 02c4 1A1C     		mov	r2, r3
 552 02c6 1023     		mov	r3, #16
 553 02c8 1340     		and	r3, r2
 554 02ca 01D0     		beq	.L37
 555              		.loc 1 269 0 is_stmt 0
 556 02cc 1123     		mov	r3, #17
 557 02ce 30E1     		b	.L7
 558              	.L37:
 270:../Sources/system/CrystalClock.c **** 
 271:../Sources/system/CrystalClock.c ****   // Wait for clock status bits to show clock source is ext ref clk
 272:../Sources/system/CrystalClock.c ****   for (i = 0 ; i < 2000 ; i++)
 559              		.loc 1 272 0 is_stmt 1
 560 02d0 3B1C     		mov	r3, r7
 561 02d2 1433     		add	r3, r3, #20
 562 02d4 0022     		mov	r2, #0
 563 02d6 1A80     		strh	r2, [r3]
 564 02d8 0FE0     		b	.L38
 565              	.L41:
 273:../Sources/system/CrystalClock.c ****   {
 274:../Sources/system/CrystalClock.c ****     if (((MCG_S & MCG_S_CLKST_MASK) >> MCG_S_CLKST_SHIFT) == 0x2) break; // jump out early if CLKST
 566              		.loc 1 274 0
 567 02da 124B     		ldr	r3, .L64
 568 02dc 9B79     		ldrb	r3, [r3, #6]
 569 02de DBB2     		uxtb	r3, r3
 570 02e0 1A1C     		mov	r2, r3
 571 02e2 0C23     		mov	r3, #12
 572 02e4 1340     		and	r3, r2
 573 02e6 9B08     		lsr	r3, r3, #2
 574 02e8 022B     		cmp	r3, #2
 575 02ea 0ED0     		beq	.L60
 576              	.L39:
 272:../Sources/system/CrystalClock.c ****   for (i = 0 ; i < 2000 ; i++)
 577              		.loc 1 272 0
 578 02ec 3B1C     		mov	r3, r7
 579 02ee 1433     		add	r3, r3, #20
 580 02f0 3A1C     		mov	r2, r7
 581 02f2 1432     		add	r2, r2, #20
 582 02f4 1288     		ldrh	r2, [r2]
 583 02f6 0132     		add	r2, r2, #1
 584 02f8 1A80     		strh	r2, [r3]
 585              	.L38:
 272:../Sources/system/CrystalClock.c ****   for (i = 0 ; i < 2000 ; i++)
 586              		.loc 1 272 0 is_stmt 0
 587 02fa 3B1C     		mov	r3, r7
 588 02fc 1433     		add	r3, r3, #20
 589 02fe 0021     		mov	r1, #0
 590 0300 5A5E     		ldrsh	r2, [r3, r1]
 591 0302 174B     		ldr	r3, .L64+60
 592 0304 9A42     		cmp	r2, r3
 593 0306 E8DD     		ble	.L41
 594 0308 00E0     		b	.L40
 595              	.L60:
 596              		.loc 1 274 0 is_stmt 1
 597 030a C046     		mov	r8, r8
 598              	.L40:
 275:../Sources/system/CrystalClock.c ****   }
 276:../Sources/system/CrystalClock.c ****   if (((MCG_S & MCG_S_CLKST_MASK) >> MCG_S_CLKST_SHIFT) != 0x2) return 0x1A; // check EXT CLK is re
 599              		.loc 1 276 0
 600 030c 054B     		ldr	r3, .L64
 601 030e 9B79     		ldrb	r3, [r3, #6]
 602 0310 DBB2     		uxtb	r3, r3
 603 0312 1A1C     		mov	r2, r3
 604 0314 0C23     		mov	r3, #12
 605 0316 1340     		and	r3, r2
 606 0318 9B08     		lsr	r3, r3, #2
 607 031a 022B     		cmp	r3, #2
 608 031c 22D0     		beq	.L42
 609              		.loc 1 276 0 is_stmt 0
 610 031e 1A23     		mov	r3, #26
 611 0320 07E1     		b	.L7
 612              	.L65:
 613 0322 C046     		.align	2
 614              	.L64:
 615 0324 00400640 		.word	1074151424
 616 0328 80F0FA02 		.word	50000000
 617 032c BFC62D00 		.word	2999999
 618 0330 0048E801 		.word	32000000
 619 0334 7F841E00 		.word	1999999
 620 0338 00093D00 		.word	4000000
 621 033c FF6BDC02 		.word	47999999
 622 0340 00E1F505 		.word	100000000
 623 0344 00127A00 		.word	8000000
 624 0348 D0121300 		.word	1250000
 625 034c A0252600 		.word	2500000
 626 0350 404B4C00 		.word	5000000
 627 0354 80969800 		.word	10000000
 628 0358 002D3101 		.word	20000000
 629 035c 1F4E0000 		.word	19999
 630 0360 CF070000 		.word	1999
 631              	.L42:
 277:../Sources/system/CrystalClock.c **** 
 278:../Sources/system/CrystalClock.c ****   // Now in FBE
 279:../Sources/system/CrystalClock.c ****   // It is recommended that the clock monitor is enabled when using an external clock as the clock 
 280:../Sources/system/CrystalClock.c ****   // It is enabled here but can be removed if this is not required.
 281:../Sources/system/CrystalClock.c ****   MCG_C6 |= MCG_C6_CME0_MASK;
 632              		.loc 1 281 0 is_stmt 1
 633 0364 754B     		ldr	r3, .L66
 634 0366 754A     		ldr	r2, .L66
 635 0368 5279     		ldrb	r2, [r2, #5]
 636 036a D2B2     		uxtb	r2, r2
 637 036c 2021     		mov	r1, #32
 638 036e 0A43     		orr	r2, r1
 639 0370 D2B2     		uxtb	r2, r2
 640 0372 5A71     		strb	r2, [r3, #5]
 282:../Sources/system/CrystalClock.c ****   
 283:../Sources/system/CrystalClock.c ****   // Configure PLL
 284:../Sources/system/CrystalClock.c ****   // Configure MCG_C5
 285:../Sources/system/CrystalClock.c ****   // If the PLL is to run in STOP mode then the PLLSTEN bit needs to be OR'ed in here or in user co
 286:../Sources/system/CrystalClock.c ****   temp_reg = MCG_C5;
 641              		.loc 1 286 0
 642 0374 714A     		ldr	r2, .L66
 643 0376 3B1C     		mov	r3, r7
 644 0378 1633     		add	r3, r3, #22
 645 037a 1279     		ldrb	r2, [r2, #4]
 646 037c 1A70     		strb	r2, [r3]
 287:../Sources/system/CrystalClock.c ****   temp_reg &= ~MCG_C5_PRDIV0_MASK;
 647              		.loc 1 287 0
 648 037e 3B1C     		mov	r3, r7
 649 0380 1633     		add	r3, r3, #22
 650 0382 3A1C     		mov	r2, r7
 651 0384 1632     		add	r2, r2, #22
 652 0386 1278     		ldrb	r2, [r2]
 653 0388 1F21     		mov	r1, #31
 654 038a 8A43     		bic	r2, r1
 655 038c 1A70     		strb	r2, [r3]
 288:../Sources/system/CrystalClock.c ****   temp_reg |= MCG_C5_PRDIV0(prdiv_val - 1);    //set PLL ref divider
 656              		.loc 1 288 0
 657 038e 7B1C     		add	r3, r7, #1
 658 0390 1B78     		ldrb	r3, [r3]
 659 0392 013B     		sub	r3, r3, #1
 660 0394 DAB2     		uxtb	r2, r3
 661 0396 1F23     		mov	r3, #31
 662 0398 1340     		and	r3, r2
 663 039a D9B2     		uxtb	r1, r3
 664 039c 3B1C     		mov	r3, r7
 665 039e 1633     		add	r3, r3, #22
 666 03a0 3A1C     		mov	r2, r7
 667 03a2 1632     		add	r2, r2, #22
 668 03a4 1278     		ldrb	r2, [r2]
 669 03a6 0A43     		orr	r2, r1
 670 03a8 1A70     		strb	r2, [r3]
 289:../Sources/system/CrystalClock.c ****   MCG_C5 = temp_reg;
 671              		.loc 1 289 0
 672 03aa 644B     		ldr	r3, .L66
 673 03ac 3A1C     		mov	r2, r7
 674 03ae 1632     		add	r2, r2, #22
 675 03b0 1278     		ldrb	r2, [r2]
 676 03b2 1A71     		strb	r2, [r3, #4]
 290:../Sources/system/CrystalClock.c **** 
 291:../Sources/system/CrystalClock.c ****   // Configure MCG_C6
 292:../Sources/system/CrystalClock.c ****   // The PLLS bit is set to enable the PLL, MCGOUT still sourced from ext ref clk
 293:../Sources/system/CrystalClock.c ****   // The loss of lock interrupt can be enabled by seperately OR'ing in the LOLIE bit in MCG_C6
 294:../Sources/system/CrystalClock.c ****   temp_reg = MCG_C6; // store present C6 value
 677              		.loc 1 294 0
 678 03b4 614A     		ldr	r2, .L66
 679 03b6 3B1C     		mov	r3, r7
 680 03b8 1633     		add	r3, r3, #22
 681 03ba 5279     		ldrb	r2, [r2, #5]
 682 03bc 1A70     		strb	r2, [r3]
 295:../Sources/system/CrystalClock.c ****   temp_reg &= ~MCG_C6_VDIV0_MASK; // clear VDIV settings
 683              		.loc 1 295 0
 684 03be 3B1C     		mov	r3, r7
 685 03c0 1633     		add	r3, r3, #22
 686 03c2 3A1C     		mov	r2, r7
 687 03c4 1632     		add	r2, r2, #22
 688 03c6 1278     		ldrb	r2, [r2]
 689 03c8 1F21     		mov	r1, #31
 690 03ca 8A43     		bic	r2, r1
 691 03cc 1A70     		strb	r2, [r3]
 296:../Sources/system/CrystalClock.c ****   temp_reg |= MCG_C6_PLLS_MASK | MCG_C6_VDIV0(vdiv_val - 24); // write new VDIV and enable PLL
 692              		.loc 1 296 0
 693 03ce 3B1C     		mov	r3, r7
 694 03d0 2033     		add	r3, r3, #32
 695 03d2 1B78     		ldrb	r3, [r3]
 696 03d4 183B     		sub	r3, r3, #24
 697 03d6 DAB2     		uxtb	r2, r3
 698 03d8 1F23     		mov	r3, #31
 699 03da 1340     		and	r3, r2
 700 03dc DAB2     		uxtb	r2, r3
 701 03de 3B1C     		mov	r3, r7
 702 03e0 1633     		add	r3, r3, #22
 703 03e2 1B78     		ldrb	r3, [r3]
 704 03e4 1343     		orr	r3, r2
 705 03e6 DAB2     		uxtb	r2, r3
 706 03e8 3B1C     		mov	r3, r7
 707 03ea 1633     		add	r3, r3, #22
 708 03ec 4021     		mov	r1, #64
 709 03ee 0A43     		orr	r2, r1
 710 03f0 1A70     		strb	r2, [r3]
 297:../Sources/system/CrystalClock.c ****   MCG_C6 = temp_reg; // update MCG_C6
 711              		.loc 1 297 0
 712 03f2 524B     		ldr	r3, .L66
 713 03f4 3A1C     		mov	r2, r7
 714 03f6 1632     		add	r2, r2, #22
 715 03f8 1278     		ldrb	r2, [r2]
 716 03fa 5A71     		strb	r2, [r3, #5]
 298:../Sources/system/CrystalClock.c **** 
 299:../Sources/system/CrystalClock.c ****   // wait for PLLST status bit to set
 300:../Sources/system/CrystalClock.c ****   for (i = 0 ; i < 2000 ; i++)
 717              		.loc 1 300 0
 718 03fc 3B1C     		mov	r3, r7
 719 03fe 1433     		add	r3, r3, #20
 720 0400 0022     		mov	r2, #0
 721 0402 1A80     		strh	r2, [r3]
 722 0404 0DE0     		b	.L43
 723              	.L46:
 301:../Sources/system/CrystalClock.c ****   {
 302:../Sources/system/CrystalClock.c ****     if (MCG_S & MCG_S_PLLST_MASK) break; // jump out early if PLLST sets before loop finishes
 724              		.loc 1 302 0
 725 0406 4D4B     		ldr	r3, .L66
 726 0408 9B79     		ldrb	r3, [r3, #6]
 727 040a DBB2     		uxtb	r3, r3
 728 040c 1A1C     		mov	r2, r3
 729 040e 2023     		mov	r3, #32
 730 0410 1340     		and	r3, r2
 731 0412 0ED1     		bne	.L61
 732              	.L44:
 300:../Sources/system/CrystalClock.c ****   for (i = 0 ; i < 2000 ; i++)
 733              		.loc 1 300 0
 734 0414 3B1C     		mov	r3, r7
 735 0416 1433     		add	r3, r3, #20
 736 0418 3A1C     		mov	r2, r7
 737 041a 1432     		add	r2, r2, #20
 738 041c 1288     		ldrh	r2, [r2]
 739 041e 0132     		add	r2, r2, #1
 740 0420 1A80     		strh	r2, [r3]
 741              	.L43:
 300:../Sources/system/CrystalClock.c ****   for (i = 0 ; i < 2000 ; i++)
 742              		.loc 1 300 0 is_stmt 0
 743 0422 3B1C     		mov	r3, r7
 744 0424 1433     		add	r3, r3, #20
 745 0426 0021     		mov	r1, #0
 746 0428 5A5E     		ldrsh	r2, [r3, r1]
 747 042a 454B     		ldr	r3, .L66+4
 748 042c 9A42     		cmp	r2, r3
 749 042e EADD     		ble	.L46
 750 0430 00E0     		b	.L45
 751              	.L61:
 752              		.loc 1 302 0 is_stmt 1
 753 0432 C046     		mov	r8, r8
 754              	.L45:
 303:../Sources/system/CrystalClock.c ****   }
 304:../Sources/system/CrystalClock.c ****   if (!(MCG_S & MCG_S_PLLST_MASK)) return 0x16; // check bit is really set and return with error if
 755              		.loc 1 304 0
 756 0434 414B     		ldr	r3, .L66
 757 0436 9B79     		ldrb	r3, [r3, #6]
 758 0438 DBB2     		uxtb	r3, r3
 759 043a 1A1C     		mov	r2, r3
 760 043c 2023     		mov	r3, #32
 761 043e 1340     		and	r3, r2
 762 0440 01D1     		bne	.L47
 763              		.loc 1 304 0 is_stmt 0
 764 0442 1623     		mov	r3, #22
 765 0444 75E0     		b	.L7
 766              	.L47:
 305:../Sources/system/CrystalClock.c **** 
 306:../Sources/system/CrystalClock.c ****   // Wait for LOCK bit to set
 307:../Sources/system/CrystalClock.c ****   for (i = 0 ; i < 4000 ; i++)
 767              		.loc 1 307 0 is_stmt 1
 768 0446 3B1C     		mov	r3, r7
 769 0448 1433     		add	r3, r3, #20
 770 044a 0022     		mov	r2, #0
 771 044c 1A80     		strh	r2, [r3]
 772 044e 0DE0     		b	.L48
 773              	.L51:
 308:../Sources/system/CrystalClock.c ****   {
 309:../Sources/system/CrystalClock.c ****     if (MCG_S & MCG_S_LOCK0_MASK) break; // jump out early if LOCK sets before loop finishes
 774              		.loc 1 309 0
 775 0450 3A4B     		ldr	r3, .L66
 776 0452 9B79     		ldrb	r3, [r3, #6]
 777 0454 DBB2     		uxtb	r3, r3
 778 0456 1A1C     		mov	r2, r3
 779 0458 4023     		mov	r3, #64
 780 045a 1340     		and	r3, r2
 781 045c 0ED1     		bne	.L62
 782              	.L49:
 307:../Sources/system/CrystalClock.c ****   for (i = 0 ; i < 4000 ; i++)
 783              		.loc 1 307 0
 784 045e 3B1C     		mov	r3, r7
 785 0460 1433     		add	r3, r3, #20
 786 0462 3A1C     		mov	r2, r7
 787 0464 1432     		add	r2, r2, #20
 788 0466 1288     		ldrh	r2, [r2]
 789 0468 0132     		add	r2, r2, #1
 790 046a 1A80     		strh	r2, [r3]
 791              	.L48:
 307:../Sources/system/CrystalClock.c ****   for (i = 0 ; i < 4000 ; i++)
 792              		.loc 1 307 0 is_stmt 0
 793 046c 3B1C     		mov	r3, r7
 794 046e 1433     		add	r3, r3, #20
 795 0470 0021     		mov	r1, #0
 796 0472 5A5E     		ldrsh	r2, [r3, r1]
 797 0474 334B     		ldr	r3, .L66+8
 798 0476 9A42     		cmp	r2, r3
 799 0478 EADD     		ble	.L51
 800 047a 00E0     		b	.L50
 801              	.L62:
 802              		.loc 1 309 0 is_stmt 1
 803 047c C046     		mov	r8, r8
 804              	.L50:
 310:../Sources/system/CrystalClock.c ****   }
 311:../Sources/system/CrystalClock.c ****   if (!(MCG_S & MCG_S_LOCK0_MASK)) return 0x44; // check bit is really set and return with error if
 805              		.loc 1 311 0
 806 047e 2F4B     		ldr	r3, .L66
 807 0480 9B79     		ldrb	r3, [r3, #6]
 808 0482 DBB2     		uxtb	r3, r3
 809 0484 1A1C     		mov	r2, r3
 810 0486 4023     		mov	r3, #64
 811 0488 1340     		and	r3, r2
 812 048a 01D1     		bne	.L52
 813              		.loc 1 311 0 is_stmt 0
 814 048c 4423     		mov	r3, #68
 815 048e 50E0     		b	.L7
 816              	.L52:
 312:../Sources/system/CrystalClock.c **** 
 313:../Sources/system/CrystalClock.c ****   // Use actual PLL settings to calculate PLL frequency
 314:../Sources/system/CrystalClock.c ****   prdiv = ((MCG_C5 & MCG_C5_PRDIV0_MASK) + 1);
 817              		.loc 1 314 0 is_stmt 1
 818 0490 2A4B     		ldr	r3, .L66
 819 0492 1B79     		ldrb	r3, [r3, #4]
 820 0494 DAB2     		uxtb	r2, r3
 821 0496 1F23     		mov	r3, #31
 822 0498 1340     		and	r3, r2
 823 049a DAB2     		uxtb	r2, r3
 824 049c 3B1C     		mov	r3, r7
 825 049e 0B33     		add	r3, r3, #11
 826 04a0 0132     		add	r2, r2, #1
 827 04a2 1A70     		strb	r2, [r3]
 315:../Sources/system/CrystalClock.c ****   vdiv = ((MCG_C6 & MCG_C6_VDIV0_MASK) + 24);
 828              		.loc 1 315 0
 829 04a4 254B     		ldr	r3, .L66
 830 04a6 5B79     		ldrb	r3, [r3, #5]
 831 04a8 DAB2     		uxtb	r2, r3
 832 04aa 1F23     		mov	r3, #31
 833 04ac 1340     		and	r3, r2
 834 04ae DAB2     		uxtb	r2, r3
 835 04b0 3B1C     		mov	r3, r7
 836 04b2 0A33     		add	r3, r3, #10
 837 04b4 1832     		add	r2, r2, #24
 838 04b6 1A70     		strb	r2, [r3]
 316:../Sources/system/CrystalClock.c **** 
 317:../Sources/system/CrystalClock.c ****   // now in PBE
 318:../Sources/system/CrystalClock.c **** 
 319:../Sources/system/CrystalClock.c ****   MCG_C1 &= ~MCG_C1_CLKS_MASK; // clear CLKS to switch CLKS mux to select PLL as MCG_OUT
 839              		.loc 1 319 0
 840 04b8 204B     		ldr	r3, .L66
 841 04ba 204A     		ldr	r2, .L66
 842 04bc 1278     		ldrb	r2, [r2]
 843 04be D1B2     		uxtb	r1, r2
 844 04c0 3F22     		mov	r2, #63
 845 04c2 0A40     		and	r2, r1
 846 04c4 D2B2     		uxtb	r2, r2
 847 04c6 1A70     		strb	r2, [r3]
 320:../Sources/system/CrystalClock.c **** 
 321:../Sources/system/CrystalClock.c ****   // Wait for clock status bits to update
 322:../Sources/system/CrystalClock.c ****   for (i = 0 ; i < 2000 ; i++)
 848              		.loc 1 322 0
 849 04c8 3B1C     		mov	r3, r7
 850 04ca 1433     		add	r3, r3, #20
 851 04cc 0022     		mov	r2, #0
 852 04ce 1A80     		strh	r2, [r3]
 853 04d0 0FE0     		b	.L53
 854              	.L56:
 323:../Sources/system/CrystalClock.c ****   {
 324:../Sources/system/CrystalClock.c ****     if (((MCG_S & MCG_S_CLKST_MASK) >> MCG_S_CLKST_SHIFT) == 0x3) break; // jump out early if CLKST
 855              		.loc 1 324 0
 856 04d2 1A4B     		ldr	r3, .L66
 857 04d4 9B79     		ldrb	r3, [r3, #6]
 858 04d6 DBB2     		uxtb	r3, r3
 859 04d8 1A1C     		mov	r2, r3
 860 04da 0C23     		mov	r3, #12
 861 04dc 1340     		and	r3, r2
 862 04de 9B08     		lsr	r3, r3, #2
 863 04e0 032B     		cmp	r3, #3
 864 04e2 0ED0     		beq	.L63
 865              	.L54:
 322:../Sources/system/CrystalClock.c ****   for (i = 0 ; i < 2000 ; i++)
 866              		.loc 1 322 0
 867 04e4 3B1C     		mov	r3, r7
 868 04e6 1433     		add	r3, r3, #20
 869 04e8 3A1C     		mov	r2, r7
 870 04ea 1432     		add	r2, r2, #20
 871 04ec 1288     		ldrh	r2, [r2]
 872 04ee 0132     		add	r2, r2, #1
 873 04f0 1A80     		strh	r2, [r3]
 874              	.L53:
 322:../Sources/system/CrystalClock.c ****   for (i = 0 ; i < 2000 ; i++)
 875              		.loc 1 322 0 is_stmt 0
 876 04f2 3B1C     		mov	r3, r7
 877 04f4 1433     		add	r3, r3, #20
 878 04f6 0021     		mov	r1, #0
 879 04f8 5A5E     		ldrsh	r2, [r3, r1]
 880 04fa 114B     		ldr	r3, .L66+4
 881 04fc 9A42     		cmp	r2, r3
 882 04fe E8DD     		ble	.L56
 883 0500 00E0     		b	.L55
 884              	.L63:
 885              		.loc 1 324 0 is_stmt 1
 886 0502 C046     		mov	r8, r8
 887              	.L55:
 325:../Sources/system/CrystalClock.c ****   }
 326:../Sources/system/CrystalClock.c ****   if (((MCG_S & MCG_S_CLKST_MASK) >> MCG_S_CLKST_SHIFT) != 0x3) return 0x1B; // check CLKST is set 
 888              		.loc 1 326 0
 889 0504 0D4B     		ldr	r3, .L66
 890 0506 9B79     		ldrb	r3, [r3, #6]
 891 0508 DBB2     		uxtb	r3, r3
 892 050a 1A1C     		mov	r2, r3
 893 050c 0C23     		mov	r3, #12
 894 050e 1340     		and	r3, r2
 895 0510 9B08     		lsr	r3, r3, #2
 896 0512 032B     		cmp	r3, #3
 897 0514 01D0     		beq	.L57
 898              		.loc 1 326 0 is_stmt 0
 899 0516 1B23     		mov	r3, #27
 900 0518 0BE0     		b	.L7
 901              	.L57:
 327:../Sources/system/CrystalClock.c **** 
 328:../Sources/system/CrystalClock.c ****   // Now in PEE
 329:../Sources/system/CrystalClock.c ****   
 330:../Sources/system/CrystalClock.c ****   return ((crystal_val / prdiv) * vdiv); //MCGOUT equals PLL output frequency
 902              		.loc 1 330 0 is_stmt 1
 903 051a 3B1C     		mov	r3, r7
 904 051c 0B33     		add	r3, r3, #11
 905 051e 1B78     		ldrb	r3, [r3]
 906 0520 7868     		ldr	r0, [r7, #4]
 907 0522 191C     		mov	r1, r3
 908 0524 FFF7FEFF 		bl	__aeabi_idiv
 909 0528 031C     		mov	r3, r0
 910 052a 3A1C     		mov	r2, r7
 911 052c 0A32     		add	r2, r2, #10
 912 052e 1278     		ldrb	r2, [r2]
 913 0530 5343     		mul	r3, r2
 914              	.L7:
 331:../Sources/system/CrystalClock.c **** } // pll_init
 915              		.loc 1 331 0
 916 0532 181C     		mov	r0, r3
 917 0534 BD46     		mov	sp, r7
 918 0536 06B0     		add	sp, sp, #24
 919              		@ sp needed for prologue
 920 0538 80BD     		pop	{r7, pc}
 921              	.L67:
 922 053a C046     		.align	2
 923              	.L66:
 924 053c 00400640 		.word	1074151424
 925 0540 CF070000 		.word	1999
 926 0544 9F0F0000 		.word	3999
 927              		.cfi_endproc
 928              	.LFE1:
 930              		.section	.text.pee_pbe,"ax",%progbits
 931              		.align	2
 932              		.global	pee_pbe
 933              		.code	16
 934              		.thumb_func
 936              	pee_pbe:
 937              	.LFB2:
 332:../Sources/system/CrystalClock.c **** 
 333:../Sources/system/CrystalClock.c **** 
 334:../Sources/system/CrystalClock.c **** 
 335:../Sources/system/CrystalClock.c **** 
 336:../Sources/system/CrystalClock.c **** /********************************************************************/
 337:../Sources/system/CrystalClock.c **** 
 338:../Sources/system/CrystalClock.c **** int pee_pbe(int crystal_val)
 339:../Sources/system/CrystalClock.c **** {
 938              		.loc 1 339 0
 939              		.cfi_startproc
 940 0000 80B5     		push	{r7, lr}
 941              	.LCFI6:
 942              		.cfi_def_cfa_offset 8
 943              		.cfi_offset 7, -8
 944              		.cfi_offset 14, -4
 945 0002 84B0     		sub	sp, sp, #16
 946              	.LCFI7:
 947              		.cfi_def_cfa_offset 24
 948 0004 00AF     		add	r7, sp, #0
 949              	.LCFI8:
 950              		.cfi_def_cfa_register 7
 951 0006 7860     		str	r0, [r7, #4]
 340:../Sources/system/CrystalClock.c ****   short i;
 341:../Sources/system/CrystalClock.c ****   
 342:../Sources/system/CrystalClock.c **** // Check MCG is in PEE mode
 343:../Sources/system/CrystalClock.c ****   if (!((((MCG_S & MCG_S_CLKST_MASK) >> MCG_S_CLKST_SHIFT) == 0x3) && // check CLKS mux has selcted
 952              		.loc 1 343 0
 953 0008 274B     		ldr	r3, .L78
 954 000a 9B79     		ldrb	r3, [r3, #6]
 955 000c DBB2     		uxtb	r3, r3
 956 000e 1A1C     		mov	r2, r3
 957 0010 0C23     		mov	r3, #12
 958 0012 1340     		and	r3, r2
 959 0014 9B08     		lsr	r3, r3, #2
 960 0016 032B     		cmp	r3, #3
 961 0018 0DD1     		bne	.L69
 344:../Sources/system/CrystalClock.c ****       (!(MCG_S & MCG_S_IREFST_MASK)) &&                               // check FLL ref is external 
 962              		.loc 1 344 0
 963 001a 234B     		ldr	r3, .L78
 964 001c 9B79     		ldrb	r3, [r3, #6]
 965 001e DBB2     		uxtb	r3, r3
 966 0020 1A1C     		mov	r2, r3
 967 0022 1023     		mov	r3, #16
 968 0024 1340     		and	r3, r2
 343:../Sources/system/CrystalClock.c ****   if (!((((MCG_S & MCG_S_CLKST_MASK) >> MCG_S_CLKST_SHIFT) == 0x3) && // check CLKS mux has selcted
 969              		.loc 1 343 0
 970 0026 06D1     		bne	.L69
 345:../Sources/system/CrystalClock.c ****       (MCG_S & MCG_S_PLLST_MASK)))                                    // check PLLS mux has selecte
 971              		.loc 1 345 0
 972 0028 1F4B     		ldr	r3, .L78
 973 002a 9B79     		ldrb	r3, [r3, #6]
 974 002c DBB2     		uxtb	r3, r3
 975 002e 1A1C     		mov	r2, r3
 976 0030 2023     		mov	r3, #32
 977 0032 1340     		and	r3, r2
 343:../Sources/system/CrystalClock.c ****   if (!((((MCG_S & MCG_S_CLKST_MASK) >> MCG_S_CLKST_SHIFT) == 0x3) && // check CLKS mux has selcted
 978              		.loc 1 343 0
 979 0034 01D1     		bne	.L70
 980              	.L69:
 346:../Sources/system/CrystalClock.c ****   {
 347:../Sources/system/CrystalClock.c ****     return 0x8;                                                       // return error code
 981              		.loc 1 347 0
 982 0036 0823     		mov	r3, #8
 983 0038 32E0     		b	.L71
 984              	.L70:
 348:../Sources/system/CrystalClock.c ****   } 
 349:../Sources/system/CrystalClock.c ****   
 350:../Sources/system/CrystalClock.c **** // As we are running from the PLL by default the PLL and external clock settings are valid
 351:../Sources/system/CrystalClock.c **** // To move to PBE from PEE simply requires the switching of the CLKS mux to select the ext clock 
 352:../Sources/system/CrystalClock.c **** // As CLKS is already 0 the CLKS value can simply be OR'ed into the register 
 353:../Sources/system/CrystalClock.c ****   MCG_C1 |= MCG_C1_CLKS(2); // switch CLKS mux to select external reference clock as MCG_OUT
 985              		.loc 1 353 0
 986 003a 1B4B     		ldr	r3, .L78
 987 003c 1A4A     		ldr	r2, .L78
 988 003e 1278     		ldrb	r2, [r2]
 989 0040 D2B2     		uxtb	r2, r2
 990 0042 8021     		mov	r1, #128
 991 0044 4942     		neg	r1, r1
 992 0046 0A43     		orr	r2, r1
 993 0048 D2B2     		uxtb	r2, r2
 994 004a 1A70     		strb	r2, [r3]
 354:../Sources/system/CrystalClock.c ****   
 355:../Sources/system/CrystalClock.c **** // Wait for clock status bits to update 
 356:../Sources/system/CrystalClock.c ****   for (i = 0 ; i < 2000 ; i++)
 995              		.loc 1 356 0
 996 004c 3B1C     		mov	r3, r7
 997 004e 0E33     		add	r3, r3, #14
 998 0050 0022     		mov	r2, #0
 999 0052 1A80     		strh	r2, [r3]
 1000 0054 0FE0     		b	.L72
 1001              	.L75:
 357:../Sources/system/CrystalClock.c ****   {
 358:../Sources/system/CrystalClock.c ****     if (((MCG_S & MCG_S_CLKST_MASK) >> MCG_S_CLKST_SHIFT) == 0x2) break; // jump out early if CLKST
 1002              		.loc 1 358 0
 1003 0056 144B     		ldr	r3, .L78
 1004 0058 9B79     		ldrb	r3, [r3, #6]
 1005 005a DBB2     		uxtb	r3, r3
 1006 005c 1A1C     		mov	r2, r3
 1007 005e 0C23     		mov	r3, #12
 1008 0060 1340     		and	r3, r2
 1009 0062 9B08     		lsr	r3, r3, #2
 1010 0064 022B     		cmp	r3, #2
 1011 0066 0ED0     		beq	.L77
 1012              	.L73:
 356:../Sources/system/CrystalClock.c ****   for (i = 0 ; i < 2000 ; i++)
 1013              		.loc 1 356 0
 1014 0068 3B1C     		mov	r3, r7
 1015 006a 0E33     		add	r3, r3, #14
 1016 006c 3A1C     		mov	r2, r7
 1017 006e 0E32     		add	r2, r2, #14
 1018 0070 1288     		ldrh	r2, [r2]
 1019 0072 0132     		add	r2, r2, #1
 1020 0074 1A80     		strh	r2, [r3]
 1021              	.L72:
 356:../Sources/system/CrystalClock.c ****   for (i = 0 ; i < 2000 ; i++)
 1022              		.loc 1 356 0 is_stmt 0
 1023 0076 3B1C     		mov	r3, r7
 1024 0078 0E33     		add	r3, r3, #14
 1025 007a 0021     		mov	r1, #0
 1026 007c 5A5E     		ldrsh	r2, [r3, r1]
 1027 007e 0B4B     		ldr	r3, .L78+4
 1028 0080 9A42     		cmp	r2, r3
 1029 0082 E8DD     		ble	.L75
 1030 0084 00E0     		b	.L74
 1031              	.L77:
 1032              		.loc 1 358 0 is_stmt 1
 1033 0086 C046     		mov	r8, r8
 1034              	.L74:
 359:../Sources/system/CrystalClock.c ****   }
 360:../Sources/system/CrystalClock.c ****   if (((MCG_S & MCG_S_CLKST_MASK) >> MCG_S_CLKST_SHIFT) != 0x2) return 0x1A; // check EXT CLK is re
 1035              		.loc 1 360 0
 1036 0088 074B     		ldr	r3, .L78
 1037 008a 9B79     		ldrb	r3, [r3, #6]
 1038 008c DBB2     		uxtb	r3, r3
 1039 008e 1A1C     		mov	r2, r3
 1040 0090 0C23     		mov	r3, #12
 1041 0092 1340     		and	r3, r2
 1042 0094 9B08     		lsr	r3, r3, #2
 1043 0096 022B     		cmp	r3, #2
 1044 0098 01D0     		beq	.L76
 1045              		.loc 1 360 0 is_stmt 0
 1046 009a 1A23     		mov	r3, #26
 1047 009c 00E0     		b	.L71
 1048              	.L76:
 361:../Sources/system/CrystalClock.c **** 
 362:../Sources/system/CrystalClock.c **** // Now in PBE mode  
 363:../Sources/system/CrystalClock.c ****   return crystal_val; // MCGOUT frequency equals external clock frequency
 1049              		.loc 1 363 0 is_stmt 1
 1050 009e 7B68     		ldr	r3, [r7, #4]
 1051              	.L71:
 364:../Sources/system/CrystalClock.c **** } // pee_pbe
 1052              		.loc 1 364 0
 1053 00a0 181C     		mov	r0, r3
 1054 00a2 BD46     		mov	sp, r7
 1055 00a4 04B0     		add	sp, sp, #16
 1056              		@ sp needed for prologue
 1057 00a6 80BD     		pop	{r7, pc}
 1058              	.L79:
 1059              		.align	2
 1060              	.L78:
 1061 00a8 00400640 		.word	1074151424
 1062 00ac CF070000 		.word	1999
 1063              		.cfi_endproc
 1064              	.LFE2:
 1066              		.section	.text.pbe_pee,"ax",%progbits
 1067              		.align	2
 1068              		.global	pbe_pee
 1069              		.code	16
 1070              		.thumb_func
 1072              	pbe_pee:
 1073              	.LFB3:
 365:../Sources/system/CrystalClock.c **** 
 366:../Sources/system/CrystalClock.c **** 
 367:../Sources/system/CrystalClock.c **** int pbe_pee(int crystal_val)
 368:../Sources/system/CrystalClock.c **** {
 1074              		.loc 1 368 0
 1075              		.cfi_startproc
 1076 0000 80B5     		push	{r7, lr}
 1077              	.LCFI9:
 1078              		.cfi_def_cfa_offset 8
 1079              		.cfi_offset 7, -8
 1080              		.cfi_offset 14, -4
 1081 0002 84B0     		sub	sp, sp, #16
 1082              	.LCFI10:
 1083              		.cfi_def_cfa_offset 24
 1084 0004 00AF     		add	r7, sp, #0
 1085              	.LCFI11:
 1086              		.cfi_def_cfa_register 7
 1087 0006 7860     		str	r0, [r7, #4]
 369:../Sources/system/CrystalClock.c ****   unsigned char prdiv, vdiv;
 370:../Sources/system/CrystalClock.c ****   short i;
 371:../Sources/system/CrystalClock.c **** 
 372:../Sources/system/CrystalClock.c ****   // Check MCG is in PBE mode
 373:../Sources/system/CrystalClock.c ****   if (!((((MCG_S & MCG_S_CLKST_MASK) >> MCG_S_CLKST_SHIFT) == 0x2) && // check CLKS mux has selcted
 1088              		.loc 1 373 0
 1089 0008 4C4B     		ldr	r3, .L96
 1090 000a 9B79     		ldrb	r3, [r3, #6]
 1091 000c DBB2     		uxtb	r3, r3
 1092 000e 1A1C     		mov	r2, r3
 1093 0010 0C23     		mov	r3, #12
 1094 0012 1340     		and	r3, r2
 1095 0014 9B08     		lsr	r3, r3, #2
 1096 0016 022B     		cmp	r3, #2
 1097 0018 14D1     		bne	.L81
 374:../Sources/system/CrystalClock.c ****       (!(MCG_S & MCG_S_IREFST_MASK)) &&                               // check FLL ref is external 
 1098              		.loc 1 374 0
 1099 001a 484B     		ldr	r3, .L96
 1100 001c 9B79     		ldrb	r3, [r3, #6]
 1101 001e DBB2     		uxtb	r3, r3
 1102 0020 1A1C     		mov	r2, r3
 1103 0022 1023     		mov	r3, #16
 1104 0024 1340     		and	r3, r2
 373:../Sources/system/CrystalClock.c ****   if (!((((MCG_S & MCG_S_CLKST_MASK) >> MCG_S_CLKST_SHIFT) == 0x2) && // check CLKS mux has selcted
 1105              		.loc 1 373 0
 1106 0026 0DD1     		bne	.L81
 375:../Sources/system/CrystalClock.c ****       (MCG_S & MCG_S_PLLST_MASK) &&                                   // check PLLS mux has selecte
 1107              		.loc 1 375 0
 1108 0028 444B     		ldr	r3, .L96
 1109 002a 9B79     		ldrb	r3, [r3, #6]
 1110 002c DBB2     		uxtb	r3, r3
 1111 002e 1A1C     		mov	r2, r3
 1112 0030 2023     		mov	r3, #32
 1113 0032 1340     		and	r3, r2
 374:../Sources/system/CrystalClock.c ****       (!(MCG_S & MCG_S_IREFST_MASK)) &&                               // check FLL ref is external 
 1114              		.loc 1 374 0
 1115 0034 06D0     		beq	.L81
 376:../Sources/system/CrystalClock.c ****       (!(MCG_C2 & MCG_C2_LP_MASK))))                                  // check MCG_C2[LP] bit is no
 1116              		.loc 1 376 0
 1117 0036 414B     		ldr	r3, .L96
 1118 0038 5B78     		ldrb	r3, [r3, #1]
 1119 003a DBB2     		uxtb	r3, r3
 1120 003c 1A1C     		mov	r2, r3
 1121 003e 0223     		mov	r3, #2
 1122 0040 1340     		and	r3, r2
 373:../Sources/system/CrystalClock.c ****   if (!((((MCG_S & MCG_S_CLKST_MASK) >> MCG_S_CLKST_SHIFT) == 0x2) && // check CLKS mux has selcted
 1123              		.loc 1 373 0
 1124 0042 01D0     		beq	.L82
 1125              	.L81:
 377:../Sources/system/CrystalClock.c ****   {
 378:../Sources/system/CrystalClock.c ****     return 0x7;                                                       // return error code
 1126              		.loc 1 378 0
 1127 0044 0723     		mov	r3, #7
 1128 0046 75E0     		b	.L83
 1129              	.L82:
 379:../Sources/system/CrystalClock.c ****   }
 380:../Sources/system/CrystalClock.c **** 
 381:../Sources/system/CrystalClock.c ****   // As the PLL settings have already been checked when PBE mode was enterred they are not checked 
 382:../Sources/system/CrystalClock.c **** 
 383:../Sources/system/CrystalClock.c ****   // Check the PLL state before transitioning to PEE mode
 384:../Sources/system/CrystalClock.c ****   
 385:../Sources/system/CrystalClock.c ****   // Check LOCK bit is set before transitioning MCG to PLL output (already checked in fbe_pbe but g
 386:../Sources/system/CrystalClock.c ****   // to re-check before switch to use PLL)
 387:../Sources/system/CrystalClock.c ****   for (i = 0 ; i < 2000 ; i++)
 1130              		.loc 1 387 0
 1131 0048 3B1C     		mov	r3, r7
 1132 004a 0E33     		add	r3, r3, #14
 1133 004c 0022     		mov	r2, #0
 1134 004e 1A80     		strh	r2, [r3]
 1135 0050 0DE0     		b	.L84
 1136              	.L87:
 388:../Sources/system/CrystalClock.c ****   {
 389:../Sources/system/CrystalClock.c ****     if (MCG_S & MCG_S_LOCK0_MASK) break; // jump out early if LOCK sets before loop finishes
 1137              		.loc 1 389 0
 1138 0052 3A4B     		ldr	r3, .L96
 1139 0054 9B79     		ldrb	r3, [r3, #6]
 1140 0056 DBB2     		uxtb	r3, r3
 1141 0058 1A1C     		mov	r2, r3
 1142 005a 4023     		mov	r3, #64
 1143 005c 1340     		and	r3, r2
 1144 005e 0ED1     		bne	.L94
 1145              	.L85:
 387:../Sources/system/CrystalClock.c ****   for (i = 0 ; i < 2000 ; i++)
 1146              		.loc 1 387 0
 1147 0060 3B1C     		mov	r3, r7
 1148 0062 0E33     		add	r3, r3, #14
 1149 0064 3A1C     		mov	r2, r7
 1150 0066 0E32     		add	r2, r2, #14
 1151 0068 1288     		ldrh	r2, [r2]
 1152 006a 0132     		add	r2, r2, #1
 1153 006c 1A80     		strh	r2, [r3]
 1154              	.L84:
 387:../Sources/system/CrystalClock.c ****   for (i = 0 ; i < 2000 ; i++)
 1155              		.loc 1 387 0 is_stmt 0
 1156 006e 3B1C     		mov	r3, r7
 1157 0070 0E33     		add	r3, r3, #14
 1158 0072 0021     		mov	r1, #0
 1159 0074 5A5E     		ldrsh	r2, [r3, r1]
 1160 0076 324B     		ldr	r3, .L96+4
 1161 0078 9A42     		cmp	r2, r3
 1162 007a EADD     		ble	.L87
 1163 007c 00E0     		b	.L86
 1164              	.L94:
 1165              		.loc 1 389 0 is_stmt 1
 1166 007e C046     		mov	r8, r8
 1167              	.L86:
 390:../Sources/system/CrystalClock.c ****   }
 391:../Sources/system/CrystalClock.c ****   if (!(MCG_S & MCG_S_LOCK0_MASK)) return 0x44; // check bit is really set and return with error if
 1168              		.loc 1 391 0
 1169 0080 2E4B     		ldr	r3, .L96
 1170 0082 9B79     		ldrb	r3, [r3, #6]
 1171 0084 DBB2     		uxtb	r3, r3
 1172 0086 1A1C     		mov	r2, r3
 1173 0088 4023     		mov	r3, #64
 1174 008a 1340     		and	r3, r2
 1175 008c 01D1     		bne	.L88
 1176              		.loc 1 391 0 is_stmt 0
 1177 008e 4423     		mov	r3, #68
 1178 0090 50E0     		b	.L83
 1179              	.L88:
 392:../Sources/system/CrystalClock.c ****   // Use actual PLL settings to calculate PLL frequency
 393:../Sources/system/CrystalClock.c ****   prdiv = ((MCG_C5 & MCG_C5_PRDIV0_MASK) + 1);
 1180              		.loc 1 393 0 is_stmt 1
 1181 0092 2A4B     		ldr	r3, .L96
 1182 0094 1B79     		ldrb	r3, [r3, #4]
 1183 0096 DAB2     		uxtb	r2, r3
 1184 0098 1F23     		mov	r3, #31
 1185 009a 1340     		and	r3, r2
 1186 009c DAB2     		uxtb	r2, r3
 1187 009e 3B1C     		mov	r3, r7
 1188 00a0 0D33     		add	r3, r3, #13
 1189 00a2 0132     		add	r2, r2, #1
 1190 00a4 1A70     		strb	r2, [r3]
 394:../Sources/system/CrystalClock.c ****   vdiv = ((MCG_C6 & MCG_C6_VDIV0_MASK) + 24);
 1191              		.loc 1 394 0
 1192 00a6 254B     		ldr	r3, .L96
 1193 00a8 5B79     		ldrb	r3, [r3, #5]
 1194 00aa DAB2     		uxtb	r2, r3
 1195 00ac 1F23     		mov	r3, #31
 1196 00ae 1340     		and	r3, r2
 1197 00b0 DAB2     		uxtb	r2, r3
 1198 00b2 3B1C     		mov	r3, r7
 1199 00b4 0C33     		add	r3, r3, #12
 1200 00b6 1832     		add	r2, r2, #24
 1201 00b8 1A70     		strb	r2, [r3]
 395:../Sources/system/CrystalClock.c ****   
 396:../Sources/system/CrystalClock.c ****   MCG_C1 &= ~MCG_C1_CLKS_MASK; // clear CLKS to switch CLKS mux to select PLL as MCG_OUT
 1202              		.loc 1 396 0
 1203 00ba 204B     		ldr	r3, .L96
 1204 00bc 1F4A     		ldr	r2, .L96
 1205 00be 1278     		ldrb	r2, [r2]
 1206 00c0 D1B2     		uxtb	r1, r2
 1207 00c2 3F22     		mov	r2, #63
 1208 00c4 0A40     		and	r2, r1
 1209 00c6 D2B2     		uxtb	r2, r2
 1210 00c8 1A70     		strb	r2, [r3]
 397:../Sources/system/CrystalClock.c **** 
 398:../Sources/system/CrystalClock.c ****   // Wait for clock status bits to update
 399:../Sources/system/CrystalClock.c ****   for (i = 0 ; i < 2000 ; i++)
 1211              		.loc 1 399 0
 1212 00ca 3B1C     		mov	r3, r7
 1213 00cc 0E33     		add	r3, r3, #14
 1214 00ce 0022     		mov	r2, #0
 1215 00d0 1A80     		strh	r2, [r3]
 1216 00d2 0FE0     		b	.L89
 1217              	.L92:
 400:../Sources/system/CrystalClock.c ****   {
 401:../Sources/system/CrystalClock.c ****     if (((MCG_S & MCG_S_CLKST_MASK) >> MCG_S_CLKST_SHIFT) == 0x3) break; // jump out early if CLKST
 1218              		.loc 1 401 0
 1219 00d4 194B     		ldr	r3, .L96
 1220 00d6 9B79     		ldrb	r3, [r3, #6]
 1221 00d8 DBB2     		uxtb	r3, r3
 1222 00da 1A1C     		mov	r2, r3
 1223 00dc 0C23     		mov	r3, #12
 1224 00de 1340     		and	r3, r2
 1225 00e0 9B08     		lsr	r3, r3, #2
 1226 00e2 032B     		cmp	r3, #3
 1227 00e4 0ED0     		beq	.L95
 1228              	.L90:
 399:../Sources/system/CrystalClock.c ****   for (i = 0 ; i < 2000 ; i++)
 1229              		.loc 1 399 0
 1230 00e6 3B1C     		mov	r3, r7
 1231 00e8 0E33     		add	r3, r3, #14
 1232 00ea 3A1C     		mov	r2, r7
 1233 00ec 0E32     		add	r2, r2, #14
 1234 00ee 1288     		ldrh	r2, [r2]
 1235 00f0 0132     		add	r2, r2, #1
 1236 00f2 1A80     		strh	r2, [r3]
 1237              	.L89:
 399:../Sources/system/CrystalClock.c ****   for (i = 0 ; i < 2000 ; i++)
 1238              		.loc 1 399 0 is_stmt 0
 1239 00f4 3B1C     		mov	r3, r7
 1240 00f6 0E33     		add	r3, r3, #14
 1241 00f8 0021     		mov	r1, #0
 1242 00fa 5A5E     		ldrsh	r2, [r3, r1]
 1243 00fc 104B     		ldr	r3, .L96+4
 1244 00fe 9A42     		cmp	r2, r3
 1245 0100 E8DD     		ble	.L92
 1246 0102 00E0     		b	.L91
 1247              	.L95:
 1248              		.loc 1 401 0 is_stmt 1
 1249 0104 C046     		mov	r8, r8
 1250              	.L91:
 402:../Sources/system/CrystalClock.c ****   }
 403:../Sources/system/CrystalClock.c ****   if (((MCG_S & MCG_S_CLKST_MASK) >> MCG_S_CLKST_SHIFT) != 0x3) return 0x1B; // check CLKST is set 
 1251              		.loc 1 403 0
 1252 0106 0D4B     		ldr	r3, .L96
 1253 0108 9B79     		ldrb	r3, [r3, #6]
 1254 010a DBB2     		uxtb	r3, r3
 1255 010c 1A1C     		mov	r2, r3
 1256 010e 0C23     		mov	r3, #12
 1257 0110 1340     		and	r3, r2
 1258 0112 9B08     		lsr	r3, r3, #2
 1259 0114 032B     		cmp	r3, #3
 1260 0116 01D0     		beq	.L93
 1261              		.loc 1 403 0 is_stmt 0
 1262 0118 1B23     		mov	r3, #27
 1263 011a 0BE0     		b	.L83
 1264              	.L93:
 404:../Sources/system/CrystalClock.c **** 
 405:../Sources/system/CrystalClock.c ****   // Now in PEE
 406:../Sources/system/CrystalClock.c ****   return ((crystal_val / prdiv) * vdiv); //MCGOUT equals PLL output frequency
 1265              		.loc 1 406 0 is_stmt 1
 1266 011c 3B1C     		mov	r3, r7
 1267 011e 0D33     		add	r3, r3, #13
 1268 0120 1B78     		ldrb	r3, [r3]
 1269 0122 7868     		ldr	r0, [r7, #4]
 1270 0124 191C     		mov	r1, r3
 1271 0126 FFF7FEFF 		bl	__aeabi_idiv
 1272 012a 031C     		mov	r3, r0
 1273 012c 3A1C     		mov	r2, r7
 1274 012e 0C32     		add	r2, r2, #12
 1275 0130 1278     		ldrb	r2, [r2]
 1276 0132 5343     		mul	r3, r2
 1277              	.L83:
 407:../Sources/system/CrystalClock.c ****   
 408:../Sources/system/CrystalClock.c **** }  // pbe_pee
 1278              		.loc 1 408 0
 1279 0134 181C     		mov	r0, r3
 1280 0136 BD46     		mov	sp, r7
 1281 0138 04B0     		add	sp, sp, #16
 1282              		@ sp needed for prologue
 1283 013a 80BD     		pop	{r7, pc}
 1284              	.L97:
 1285              		.align	2
 1286              	.L96:
 1287 013c 00400640 		.word	1074151424
 1288 0140 CF070000 		.word	1999
 1289              		.cfi_endproc
 1290              	.LFE3:
 1292              		.section	.text.pbe_fbe,"ax",%progbits
 1293              		.align	2
 1294              		.global	pbe_fbe
 1295              		.code	16
 1296              		.thumb_func
 1298              	pbe_fbe:
 1299              	.LFB4:
 409:../Sources/system/CrystalClock.c **** 
 410:../Sources/system/CrystalClock.c **** 
 411:../Sources/system/CrystalClock.c **** int pbe_fbe(int crystal_val)
 412:../Sources/system/CrystalClock.c **** {
 1300              		.loc 1 412 0
 1301              		.cfi_startproc
 1302 0000 80B5     		push	{r7, lr}
 1303              	.LCFI12:
 1304              		.cfi_def_cfa_offset 8
 1305              		.cfi_offset 7, -8
 1306              		.cfi_offset 14, -4
 1307 0002 84B0     		sub	sp, sp, #16
 1308              	.LCFI13:
 1309              		.cfi_def_cfa_offset 24
 1310 0004 00AF     		add	r7, sp, #0
 1311              	.LCFI14:
 1312              		.cfi_def_cfa_register 7
 1313 0006 7860     		str	r0, [r7, #4]
 413:../Sources/system/CrystalClock.c ****   short i;
 414:../Sources/system/CrystalClock.c ****   
 415:../Sources/system/CrystalClock.c **** // Check MCG is in PBE mode
 416:../Sources/system/CrystalClock.c ****   if (!((((MCG_S & MCG_S_CLKST_MASK) >> MCG_S_CLKST_SHIFT) == 0x2) && // check CLKS mux has selcted
 1314              		.loc 1 416 0
 1315 0008 284B     		ldr	r3, .L108
 1316 000a 9B79     		ldrb	r3, [r3, #6]
 1317 000c DBB2     		uxtb	r3, r3
 1318 000e 1A1C     		mov	r2, r3
 1319 0010 0C23     		mov	r3, #12
 1320 0012 1340     		and	r3, r2
 1321 0014 9B08     		lsr	r3, r3, #2
 1322 0016 022B     		cmp	r3, #2
 1323 0018 14D1     		bne	.L99
 417:../Sources/system/CrystalClock.c ****       (!(MCG_S & MCG_S_IREFST_MASK)) &&                               // check FLL ref is external 
 1324              		.loc 1 417 0
 1325 001a 244B     		ldr	r3, .L108
 1326 001c 9B79     		ldrb	r3, [r3, #6]
 1327 001e DBB2     		uxtb	r3, r3
 1328 0020 1A1C     		mov	r2, r3
 1329 0022 1023     		mov	r3, #16
 1330 0024 1340     		and	r3, r2
 416:../Sources/system/CrystalClock.c ****   if (!((((MCG_S & MCG_S_CLKST_MASK) >> MCG_S_CLKST_SHIFT) == 0x2) && // check CLKS mux has selcted
 1331              		.loc 1 416 0
 1332 0026 0DD1     		bne	.L99
 418:../Sources/system/CrystalClock.c ****       (MCG_S & MCG_S_PLLST_MASK) &&                                   // check PLLS mux has selecte
 1333              		.loc 1 418 0
 1334 0028 204B     		ldr	r3, .L108
 1335 002a 9B79     		ldrb	r3, [r3, #6]
 1336 002c DBB2     		uxtb	r3, r3
 1337 002e 1A1C     		mov	r2, r3
 1338 0030 2023     		mov	r3, #32
 1339 0032 1340     		and	r3, r2
 417:../Sources/system/CrystalClock.c ****       (!(MCG_S & MCG_S_IREFST_MASK)) &&                               // check FLL ref is external 
 1340              		.loc 1 417 0
 1341 0034 06D0     		beq	.L99
 419:../Sources/system/CrystalClock.c ****       (!(MCG_C2 & MCG_C2_LP_MASK))))                                  // check MCG_C2[LP] bit is no
 1342              		.loc 1 419 0
 1343 0036 1D4B     		ldr	r3, .L108
 1344 0038 5B78     		ldrb	r3, [r3, #1]
 1345 003a DBB2     		uxtb	r3, r3
 1346 003c 1A1C     		mov	r2, r3
 1347 003e 0223     		mov	r3, #2
 1348 0040 1340     		and	r3, r2
 416:../Sources/system/CrystalClock.c ****   if (!((((MCG_S & MCG_S_CLKST_MASK) >> MCG_S_CLKST_SHIFT) == 0x2) && // check CLKS mux has selcted
 1349              		.loc 1 416 0
 1350 0042 01D0     		beq	.L100
 1351              	.L99:
 420:../Sources/system/CrystalClock.c ****   {
 421:../Sources/system/CrystalClock.c ****     return 0x7;                                                       // return error code
 1352              		.loc 1 421 0
 1353 0044 0723     		mov	r3, #7
 1354 0046 2DE0     		b	.L101
 1355              	.L100:
 422:../Sources/system/CrystalClock.c ****   }
 423:../Sources/system/CrystalClock.c **** 
 424:../Sources/system/CrystalClock.c **** // As we are running from the ext clock, by default the external clock settings are valid
 425:../Sources/system/CrystalClock.c **** // To move to FBE from PBE simply requires the switching of the PLLS mux to disable the PLL 
 426:../Sources/system/CrystalClock.c ****   
 427:../Sources/system/CrystalClock.c ****   MCG_C6 &= ~MCG_C6_PLLS_MASK; // clear PLLS to disable PLL, still clocked from ext ref clk
 1356              		.loc 1 427 0
 1357 0048 184B     		ldr	r3, .L108
 1358 004a 184A     		ldr	r2, .L108
 1359 004c 5279     		ldrb	r2, [r2, #5]
 1360 004e D2B2     		uxtb	r2, r2
 1361 0050 4021     		mov	r1, #64
 1362 0052 8A43     		bic	r2, r1
 1363 0054 D2B2     		uxtb	r2, r2
 1364 0056 5A71     		strb	r2, [r3, #5]
 428:../Sources/system/CrystalClock.c ****   
 429:../Sources/system/CrystalClock.c **** // wait for PLLST status bit to set
 430:../Sources/system/CrystalClock.c ****   for (i = 0 ; i < 2000 ; i++)
 1365              		.loc 1 430 0
 1366 0058 3B1C     		mov	r3, r7
 1367 005a 0E33     		add	r3, r3, #14
 1368 005c 0022     		mov	r2, #0
 1369 005e 1A80     		strh	r2, [r3]
 1370 0060 0DE0     		b	.L102
 1371              	.L105:
 431:../Sources/system/CrystalClock.c ****   {
 432:../Sources/system/CrystalClock.c ****     if (!(MCG_S & MCG_S_PLLST_MASK)) break; // jump out early if PLLST clears before loop finishes
 1372              		.loc 1 432 0
 1373 0062 124B     		ldr	r3, .L108
 1374 0064 9B79     		ldrb	r3, [r3, #6]
 1375 0066 DBB2     		uxtb	r3, r3
 1376 0068 1A1C     		mov	r2, r3
 1377 006a 2023     		mov	r3, #32
 1378 006c 1340     		and	r3, r2
 1379 006e 0ED0     		beq	.L107
 1380              	.L103:
 430:../Sources/system/CrystalClock.c ****   for (i = 0 ; i < 2000 ; i++)
 1381              		.loc 1 430 0
 1382 0070 3B1C     		mov	r3, r7
 1383 0072 0E33     		add	r3, r3, #14
 1384 0074 3A1C     		mov	r2, r7
 1385 0076 0E32     		add	r2, r2, #14
 1386 0078 1288     		ldrh	r2, [r2]
 1387 007a 0132     		add	r2, r2, #1
 1388 007c 1A80     		strh	r2, [r3]
 1389              	.L102:
 430:../Sources/system/CrystalClock.c ****   for (i = 0 ; i < 2000 ; i++)
 1390              		.loc 1 430 0 is_stmt 0
 1391 007e 3B1C     		mov	r3, r7
 1392 0080 0E33     		add	r3, r3, #14
 1393 0082 0021     		mov	r1, #0
 1394 0084 5A5E     		ldrsh	r2, [r3, r1]
 1395 0086 0A4B     		ldr	r3, .L108+4
 1396 0088 9A42     		cmp	r2, r3
 1397 008a EADD     		ble	.L105
 1398 008c 00E0     		b	.L104
 1399              	.L107:
 1400              		.loc 1 432 0 is_stmt 1
 1401 008e C046     		mov	r8, r8
 1402              	.L104:
 433:../Sources/system/CrystalClock.c ****   }
 434:../Sources/system/CrystalClock.c ****   if (MCG_S & MCG_S_PLLST_MASK) return 0x15; // check bit is really clear and return with error if 
 1403              		.loc 1 434 0
 1404 0090 064B     		ldr	r3, .L108
 1405 0092 9B79     		ldrb	r3, [r3, #6]
 1406 0094 DBB2     		uxtb	r3, r3
 1407 0096 1A1C     		mov	r2, r3
 1408 0098 2023     		mov	r3, #32
 1409 009a 1340     		and	r3, r2
 1410 009c 01D0     		beq	.L106
 1411              		.loc 1 434 0 is_stmt 0
 1412 009e 1523     		mov	r3, #21
 1413 00a0 00E0     		b	.L101
 1414              	.L106:
 435:../Sources/system/CrystalClock.c **** 
 436:../Sources/system/CrystalClock.c **** // Now in FBE mode  
 437:../Sources/system/CrystalClock.c ****   return crystal_val; // MCGOUT frequency equals external clock frequency 
 1415              		.loc 1 437 0 is_stmt 1
 1416 00a2 7B68     		ldr	r3, [r7, #4]
 1417              	.L101:
 438:../Sources/system/CrystalClock.c **** } // pbe_fbe
 1418              		.loc 1 438 0
 1419 00a4 181C     		mov	r0, r3
 1420 00a6 BD46     		mov	sp, r7
 1421 00a8 04B0     		add	sp, sp, #16
 1422              		@ sp needed for prologue
 1423 00aa 80BD     		pop	{r7, pc}
 1424              	.L109:
 1425              		.align	2
 1426              	.L108:
 1427 00ac 00400640 		.word	1074151424
 1428 00b0 CF070000 		.word	1999
 1429              		.cfi_endproc
 1430              	.LFE4:
 1432              		.section	.text.fbe_pbe,"ax",%progbits
 1433              		.align	2
 1434              		.global	fbe_pbe
 1435              		.code	16
 1436              		.thumb_func
 1438              	fbe_pbe:
 1439              	.LFB5:
 439:../Sources/system/CrystalClock.c **** 
 440:../Sources/system/CrystalClock.c **** 
 441:../Sources/system/CrystalClock.c **** /********************************************************************/
 442:../Sources/system/CrystalClock.c **** /* Functon name : fbe_pbe
 443:../Sources/system/CrystalClock.c ****  *
 444:../Sources/system/CrystalClock.c ****  * Mode transition: FBE to PBE mode
 445:../Sources/system/CrystalClock.c ****  *
 446:../Sources/system/CrystalClock.c ****  * This function transitions the MCG from FBE mode to PBE mode. 
 447:../Sources/system/CrystalClock.c ****  * This function presently only supports OSC0 and PLL0. Support for OSC1 and PLL1 will be added soo
 448:../Sources/system/CrystalClock.c ****  * The function requires the desired OSC and PLL be passed in to it for compatibility with the
 449:../Sources/system/CrystalClock.c ****  * future support of OSC/PLL selection
 450:../Sources/system/CrystalClock.c ****  *
 451:../Sources/system/CrystalClock.c ****  * Parameters: crystal_val - external clock frequency in Hz
 452:../Sources/system/CrystalClock.c ****  *             prdiv_val   - value to divide the external clock source by to create the desired
 453:../Sources/system/CrystalClock.c ****  *                           PLL reference clock frequency
 454:../Sources/system/CrystalClock.c ****  *             vdiv_val    - value to multiply the PLL reference clock frequency by
 455:../Sources/system/CrystalClock.c ****  *
 456:../Sources/system/CrystalClock.c ****  * Return value : MCGCLKOUT frequency (Hz) or error code
 457:../Sources/system/CrystalClock.c ****  */
 458:../Sources/system/CrystalClock.c **** int fbe_pbe(int crystal_val, signed char prdiv_val, signed char vdiv_val)
 459:../Sources/system/CrystalClock.c **** {
 1440              		.loc 1 459 0
 1441              		.cfi_startproc
 1442 0000 80B5     		push	{r7, lr}
 1443              	.LCFI15:
 1444              		.cfi_def_cfa_offset 8
 1445              		.cfi_offset 7, -8
 1446              		.cfi_offset 14, -4
 1447 0002 86B0     		sub	sp, sp, #24
 1448              	.LCFI16:
 1449              		.cfi_def_cfa_offset 32
 1450 0004 00AF     		add	r7, sp, #0
 1451              	.LCFI17:
 1452              		.cfi_def_cfa_register 7
 1453 0006 7860     		str	r0, [r7, #4]
 1454 0008 FB1C     		add	r3, r7, #3
 1455 000a 1970     		strb	r1, [r3]
 1456 000c BB1C     		add	r3, r7, #2
 1457 000e 1A70     		strb	r2, [r3]
 460:../Sources/system/CrystalClock.c ****   unsigned char temp_reg;
 461:../Sources/system/CrystalClock.c ****   short i;
 462:../Sources/system/CrystalClock.c ****   int pll_freq;
 463:../Sources/system/CrystalClock.c ****   
 464:../Sources/system/CrystalClock.c **** // Check MCG is in FBE mode
 465:../Sources/system/CrystalClock.c ****   if (!((((MCG_S & MCG_S_CLKST_MASK) >> MCG_S_CLKST_SHIFT) == 0x2) && // check CLKS mux has selcted
 1458              		.loc 1 465 0
 1459 0010 7D4B     		ldr	r3, .L134
 1460 0012 9B79     		ldrb	r3, [r3, #6]
 1461 0014 DBB2     		uxtb	r3, r3
 1462 0016 1A1C     		mov	r2, r3
 1463 0018 0C23     		mov	r3, #12
 1464 001a 1340     		and	r3, r2
 1465 001c 9B08     		lsr	r3, r3, #2
 1466 001e 022B     		cmp	r3, #2
 1467 0020 14D1     		bne	.L111
 466:../Sources/system/CrystalClock.c ****       (!(MCG_S & MCG_S_IREFST_MASK)) &&                               // check FLL ref is external 
 1468              		.loc 1 466 0
 1469 0022 794B     		ldr	r3, .L134
 1470 0024 9B79     		ldrb	r3, [r3, #6]
 1471 0026 DBB2     		uxtb	r3, r3
 1472 0028 1A1C     		mov	r2, r3
 1473 002a 1023     		mov	r3, #16
 1474 002c 1340     		and	r3, r2
 465:../Sources/system/CrystalClock.c ****   if (!((((MCG_S & MCG_S_CLKST_MASK) >> MCG_S_CLKST_SHIFT) == 0x2) && // check CLKS mux has selcted
 1475              		.loc 1 465 0
 1476 002e 0DD1     		bne	.L111
 467:../Sources/system/CrystalClock.c ****       (!(MCG_S & MCG_S_PLLST_MASK)) &&                                // check PLLS mux has selecte
 1477              		.loc 1 467 0
 1478 0030 754B     		ldr	r3, .L134
 1479 0032 9B79     		ldrb	r3, [r3, #6]
 1480 0034 DBB2     		uxtb	r3, r3
 1481 0036 1A1C     		mov	r2, r3
 1482 0038 2023     		mov	r3, #32
 1483 003a 1340     		and	r3, r2
 466:../Sources/system/CrystalClock.c ****       (!(MCG_S & MCG_S_IREFST_MASK)) &&                               // check FLL ref is external 
 1484              		.loc 1 466 0
 1485 003c 06D1     		bne	.L111
 468:../Sources/system/CrystalClock.c ****       (!(MCG_C2 & MCG_C2_LP_MASK))))                                  // check MCG_C2[LP] bit is no
 1486              		.loc 1 468 0
 1487 003e 724B     		ldr	r3, .L134
 1488 0040 5B78     		ldrb	r3, [r3, #1]
 1489 0042 DBB2     		uxtb	r3, r3
 1490 0044 1A1C     		mov	r2, r3
 1491 0046 0223     		mov	r3, #2
 1492 0048 1340     		and	r3, r2
 465:../Sources/system/CrystalClock.c ****   if (!((((MCG_S & MCG_S_CLKST_MASK) >> MCG_S_CLKST_SHIFT) == 0x2) && // check CLKS mux has selcted
 1493              		.loc 1 465 0
 1494 004a 01D0     		beq	.L112
 1495              	.L111:
 469:../Sources/system/CrystalClock.c ****   {
 470:../Sources/system/CrystalClock.c ****     return 0x4;                                                       // return error code
 1496              		.loc 1 470 0
 1497 004c 0423     		mov	r3, #4
 1498 004e D6E0     		b	.L113
 1499              	.L112:
 471:../Sources/system/CrystalClock.c ****   }
 472:../Sources/system/CrystalClock.c ****   
 473:../Sources/system/CrystalClock.c **** // As the external frequency has already been checked when FBE mode was enterred it is not checked 
 474:../Sources/system/CrystalClock.c **** 
 475:../Sources/system/CrystalClock.c **** // Check PLL divider settings are within spec.
 476:../Sources/system/CrystalClock.c ****   if ((prdiv_val < 1) || (prdiv_val > 25)) {return 0x41;}
 1500              		.loc 1 476 0
 1501 0050 FB1C     		add	r3, r7, #3
 1502 0052 1B78     		ldrb	r3, [r3]
 1503 0054 5BB2     		sxtb	r3, r3
 1504 0056 002B     		cmp	r3, #0
 1505 0058 04DD     		ble	.L114
 1506              		.loc 1 476 0 is_stmt 0
 1507 005a FB1C     		add	r3, r7, #3
 1508 005c 1B78     		ldrb	r3, [r3]
 1509 005e 5BB2     		sxtb	r3, r3
 1510 0060 192B     		cmp	r3, #25
 1511 0062 01DD     		ble	.L115
 1512              	.L114:
 1513              		.loc 1 476 0
 1514 0064 4123     		mov	r3, #65
 1515 0066 CAE0     		b	.L113
 1516              	.L115:
 477:../Sources/system/CrystalClock.c ****   if ((vdiv_val < 24) || (vdiv_val > 50)) {return 0x42;} 
 1517              		.loc 1 477 0 is_stmt 1
 1518 0068 BB1C     		add	r3, r7, #2
 1519 006a 1B78     		ldrb	r3, [r3]
 1520 006c 5BB2     		sxtb	r3, r3
 1521 006e 172B     		cmp	r3, #23
 1522 0070 04DD     		ble	.L116
 1523              		.loc 1 477 0 is_stmt 0
 1524 0072 BB1C     		add	r3, r7, #2
 1525 0074 1B78     		ldrb	r3, [r3]
 1526 0076 5BB2     		sxtb	r3, r3
 1527 0078 322B     		cmp	r3, #50
 1528 007a 01DD     		ble	.L117
 1529              	.L116:
 1530              		.loc 1 477 0
 1531 007c 4223     		mov	r3, #66
 1532 007e BEE0     		b	.L113
 1533              	.L117:
 478:../Sources/system/CrystalClock.c ****   
 479:../Sources/system/CrystalClock.c **** // Check PLL reference clock frequency is within spec.
 480:../Sources/system/CrystalClock.c ****   if (((crystal_val / prdiv_val) < 2000000) || ((crystal_val / prdiv_val) > 4000000)) {return 0x43;
 1534              		.loc 1 480 0 is_stmt 1
 1535 0080 FB1C     		add	r3, r7, #3
 1536 0082 1B78     		ldrb	r3, [r3]
 1537 0084 5BB2     		sxtb	r3, r3
 1538 0086 7868     		ldr	r0, [r7, #4]
 1539 0088 191C     		mov	r1, r3
 1540 008a FFF7FEFF 		bl	__aeabi_idiv
 1541 008e 031C     		mov	r3, r0
 1542 0090 1A1C     		mov	r2, r3
 1543 0092 5E4B     		ldr	r3, .L134+4
 1544 0094 9A42     		cmp	r2, r3
 1545 0096 0BDD     		ble	.L118
 1546              		.loc 1 480 0 is_stmt 0
 1547 0098 FB1C     		add	r3, r7, #3
 1548 009a 1B78     		ldrb	r3, [r3]
 1549 009c 5BB2     		sxtb	r3, r3
 1550 009e 7868     		ldr	r0, [r7, #4]
 1551 00a0 191C     		mov	r1, r3
 1552 00a2 FFF7FEFF 		bl	__aeabi_idiv
 1553 00a6 031C     		mov	r3, r0
 1554 00a8 1A1C     		mov	r2, r3
 1555 00aa 594B     		ldr	r3, .L134+8
 1556 00ac 9A42     		cmp	r2, r3
 1557 00ae 01DD     		ble	.L119
 1558              	.L118:
 1559              		.loc 1 480 0
 1560 00b0 4323     		mov	r3, #67
 1561 00b2 A4E0     		b	.L113
 1562              	.L119:
 481:../Sources/system/CrystalClock.c ****        
 482:../Sources/system/CrystalClock.c **** // Check PLL output frequency is within spec.
 483:../Sources/system/CrystalClock.c ****   pll_freq = (crystal_val / prdiv_val) * vdiv_val;
 1563              		.loc 1 483 0 is_stmt 1
 1564 00b4 FB1C     		add	r3, r7, #3
 1565 00b6 1B78     		ldrb	r3, [r3]
 1566 00b8 5BB2     		sxtb	r3, r3
 1567 00ba 7868     		ldr	r0, [r7, #4]
 1568 00bc 191C     		mov	r1, r3
 1569 00be FFF7FEFF 		bl	__aeabi_idiv
 1570 00c2 031C     		mov	r3, r0
 1571 00c4 BA1C     		add	r2, r7, #2
 1572 00c6 1278     		ldrb	r2, [r2]
 1573 00c8 52B2     		sxtb	r2, r2
 1574 00ca 5343     		mul	r3, r2
 1575 00cc 3B61     		str	r3, [r7, #16]
 484:../Sources/system/CrystalClock.c ****   if ((pll_freq < 48000000) || (pll_freq > 100000000)) {return 0x45;}
 1576              		.loc 1 484 0
 1577 00ce 3A69     		ldr	r2, [r7, #16]
 1578 00d0 504B     		ldr	r3, .L134+12
 1579 00d2 9A42     		cmp	r2, r3
 1580 00d4 03DD     		ble	.L120
 1581              		.loc 1 484 0 is_stmt 0
 1582 00d6 3A69     		ldr	r2, [r7, #16]
 1583 00d8 4F4B     		ldr	r3, .L134+16
 1584 00da 9A42     		cmp	r2, r3
 1585 00dc 01DD     		ble	.L121
 1586              	.L120:
 1587              		.loc 1 484 0
 1588 00de 4523     		mov	r3, #69
 1589 00e0 8DE0     		b	.L113
 1590              	.L121:
 485:../Sources/system/CrystalClock.c **** 
 486:../Sources/system/CrystalClock.c ****   // Configure MCG_C5
 487:../Sources/system/CrystalClock.c ****   // If the PLL is to run in STOP mode then the PLLSTEN bit needs to be OR'ed in here or in user co
 488:../Sources/system/CrystalClock.c ****   temp_reg = MCG_C5;
 1591              		.loc 1 488 0 is_stmt 1
 1592 00e2 494A     		ldr	r2, .L134
 1593 00e4 3B1C     		mov	r3, r7
 1594 00e6 0F33     		add	r3, r3, #15
 1595 00e8 1279     		ldrb	r2, [r2, #4]
 1596 00ea 1A70     		strb	r2, [r3]
 489:../Sources/system/CrystalClock.c ****   temp_reg &= ~MCG_C5_PRDIV0_MASK;
 1597              		.loc 1 489 0
 1598 00ec 3B1C     		mov	r3, r7
 1599 00ee 0F33     		add	r3, r3, #15
 1600 00f0 3A1C     		mov	r2, r7
 1601 00f2 0F32     		add	r2, r2, #15
 1602 00f4 1278     		ldrb	r2, [r2]
 1603 00f6 1F21     		mov	r1, #31
 1604 00f8 8A43     		bic	r2, r1
 1605 00fa 1A70     		strb	r2, [r3]
 490:../Sources/system/CrystalClock.c ****   temp_reg |= MCG_C5_PRDIV0(prdiv_val - 1);    //set PLL ref divider
 1606              		.loc 1 490 0
 1607 00fc FB1C     		add	r3, r7, #3
 1608 00fe 1B78     		ldrb	r3, [r3]
 1609 0100 013B     		sub	r3, r3, #1
 1610 0102 DAB2     		uxtb	r2, r3
 1611 0104 1F23     		mov	r3, #31
 1612 0106 1340     		and	r3, r2
 1613 0108 D9B2     		uxtb	r1, r3
 1614 010a 3B1C     		mov	r3, r7
 1615 010c 0F33     		add	r3, r3, #15
 1616 010e 3A1C     		mov	r2, r7
 1617 0110 0F32     		add	r2, r2, #15
 1618 0112 1278     		ldrb	r2, [r2]
 1619 0114 0A43     		orr	r2, r1
 1620 0116 1A70     		strb	r2, [r3]
 491:../Sources/system/CrystalClock.c ****   MCG_C5 = temp_reg;
 1621              		.loc 1 491 0
 1622 0118 3B4B     		ldr	r3, .L134
 1623 011a 3A1C     		mov	r2, r7
 1624 011c 0F32     		add	r2, r2, #15
 1625 011e 1278     		ldrb	r2, [r2]
 1626 0120 1A71     		strb	r2, [r3, #4]
 492:../Sources/system/CrystalClock.c **** 
 493:../Sources/system/CrystalClock.c ****   // Configure MCG_C6
 494:../Sources/system/CrystalClock.c ****   // The PLLS bit is set to enable the PLL, MCGOUT still sourced from ext ref clk 
 495:../Sources/system/CrystalClock.c ****   // The clock monitor is not enabled here as it has likely been enabled previously and so the valu
 496:../Sources/system/CrystalClock.c ****   // is not altered here.
 497:../Sources/system/CrystalClock.c ****   // The loss of lock interrupt can be enabled by seperately OR'ing in the LOLIE bit in MCG_C6
 498:../Sources/system/CrystalClock.c ****   temp_reg = MCG_C6; // store present C6 value
 1627              		.loc 1 498 0
 1628 0122 394A     		ldr	r2, .L134
 1629 0124 3B1C     		mov	r3, r7
 1630 0126 0F33     		add	r3, r3, #15
 1631 0128 5279     		ldrb	r2, [r2, #5]
 1632 012a 1A70     		strb	r2, [r3]
 499:../Sources/system/CrystalClock.c ****   temp_reg &= ~MCG_C6_VDIV0_MASK; // clear VDIV settings
 1633              		.loc 1 499 0
 1634 012c 3B1C     		mov	r3, r7
 1635 012e 0F33     		add	r3, r3, #15
 1636 0130 3A1C     		mov	r2, r7
 1637 0132 0F32     		add	r2, r2, #15
 1638 0134 1278     		ldrb	r2, [r2]
 1639 0136 1F21     		mov	r1, #31
 1640 0138 8A43     		bic	r2, r1
 1641 013a 1A70     		strb	r2, [r3]
 500:../Sources/system/CrystalClock.c ****   temp_reg |= MCG_C6_PLLS_MASK | MCG_C6_VDIV0(vdiv_val - 24); // write new VDIV and enable PLL
 1642              		.loc 1 500 0
 1643 013c BB1C     		add	r3, r7, #2
 1644 013e 1B78     		ldrb	r3, [r3]
 1645 0140 183B     		sub	r3, r3, #24
 1646 0142 DAB2     		uxtb	r2, r3
 1647 0144 1F23     		mov	r3, #31
 1648 0146 1340     		and	r3, r2
 1649 0148 DAB2     		uxtb	r2, r3
 1650 014a 3B1C     		mov	r3, r7
 1651 014c 0F33     		add	r3, r3, #15
 1652 014e 1B78     		ldrb	r3, [r3]
 1653 0150 1343     		orr	r3, r2
 1654 0152 DAB2     		uxtb	r2, r3
 1655 0154 3B1C     		mov	r3, r7
 1656 0156 0F33     		add	r3, r3, #15
 1657 0158 4021     		mov	r1, #64
 1658 015a 0A43     		orr	r2, r1
 1659 015c 1A70     		strb	r2, [r3]
 501:../Sources/system/CrystalClock.c ****   MCG_C6 = temp_reg; // update MCG_C6
 1660              		.loc 1 501 0
 1661 015e 2A4B     		ldr	r3, .L134
 1662 0160 3A1C     		mov	r2, r7
 1663 0162 0F32     		add	r2, r2, #15
 1664 0164 1278     		ldrb	r2, [r2]
 1665 0166 5A71     		strb	r2, [r3, #5]
 502:../Sources/system/CrystalClock.c ****   
 503:../Sources/system/CrystalClock.c ****   // wait for PLLST status bit to set
 504:../Sources/system/CrystalClock.c ****   for (i = 0 ; i < 2000 ; i++)
 1666              		.loc 1 504 0
 1667 0168 3B1C     		mov	r3, r7
 1668 016a 1633     		add	r3, r3, #22
 1669 016c 0022     		mov	r2, #0
 1670 016e 1A80     		strh	r2, [r3]
 1671 0170 0DE0     		b	.L122
 1672              	.L125:
 505:../Sources/system/CrystalClock.c ****   {
 506:../Sources/system/CrystalClock.c ****     if (MCG_S & MCG_S_PLLST_MASK) break; // jump out early if PLLST sets before loop finishes
 1673              		.loc 1 506 0
 1674 0172 254B     		ldr	r3, .L134
 1675 0174 9B79     		ldrb	r3, [r3, #6]
 1676 0176 DBB2     		uxtb	r3, r3
 1677 0178 1A1C     		mov	r2, r3
 1678 017a 2023     		mov	r3, #32
 1679 017c 1340     		and	r3, r2
 1680 017e 0ED1     		bne	.L132
 1681              	.L123:
 504:../Sources/system/CrystalClock.c ****   for (i = 0 ; i < 2000 ; i++)
 1682              		.loc 1 504 0
 1683 0180 3B1C     		mov	r3, r7
 1684 0182 1633     		add	r3, r3, #22
 1685 0184 3A1C     		mov	r2, r7
 1686 0186 1632     		add	r2, r2, #22
 1687 0188 1288     		ldrh	r2, [r2]
 1688 018a 0132     		add	r2, r2, #1
 1689 018c 1A80     		strh	r2, [r3]
 1690              	.L122:
 504:../Sources/system/CrystalClock.c ****   for (i = 0 ; i < 2000 ; i++)
 1691              		.loc 1 504 0 is_stmt 0
 1692 018e 3B1C     		mov	r3, r7
 1693 0190 1633     		add	r3, r3, #22
 1694 0192 0021     		mov	r1, #0
 1695 0194 5A5E     		ldrsh	r2, [r3, r1]
 1696 0196 214B     		ldr	r3, .L134+20
 1697 0198 9A42     		cmp	r2, r3
 1698 019a EADD     		ble	.L125
 1699 019c 00E0     		b	.L124
 1700              	.L132:
 1701              		.loc 1 506 0 is_stmt 1
 1702 019e C046     		mov	r8, r8
 1703              	.L124:
 507:../Sources/system/CrystalClock.c ****   }
 508:../Sources/system/CrystalClock.c ****   if (!(MCG_S & MCG_S_PLLST_MASK)) return 0x16; // check bit is really set and return with error if
 1704              		.loc 1 508 0
 1705 01a0 194B     		ldr	r3, .L134
 1706 01a2 9B79     		ldrb	r3, [r3, #6]
 1707 01a4 DBB2     		uxtb	r3, r3
 1708 01a6 1A1C     		mov	r2, r3
 1709 01a8 2023     		mov	r3, #32
 1710 01aa 1340     		and	r3, r2
 1711 01ac 01D1     		bne	.L126
 1712              		.loc 1 508 0 is_stmt 0
 1713 01ae 1623     		mov	r3, #22
 1714 01b0 25E0     		b	.L113
 1715              	.L126:
 509:../Sources/system/CrystalClock.c **** 
 510:../Sources/system/CrystalClock.c ****   // Wait for LOCK bit to set
 511:../Sources/system/CrystalClock.c ****   for (i = 0 ; i < 2000 ; i++)
 1716              		.loc 1 511 0 is_stmt 1
 1717 01b2 3B1C     		mov	r3, r7
 1718 01b4 1633     		add	r3, r3, #22
 1719 01b6 0022     		mov	r2, #0
 1720 01b8 1A80     		strh	r2, [r3]
 1721 01ba 0DE0     		b	.L127
 1722              	.L130:
 512:../Sources/system/CrystalClock.c ****   {
 513:../Sources/system/CrystalClock.c ****     if (MCG_S & MCG_S_LOCK0_MASK) break; // jump out early if LOCK sets before loop finishes
 1723              		.loc 1 513 0
 1724 01bc 124B     		ldr	r3, .L134
 1725 01be 9B79     		ldrb	r3, [r3, #6]
 1726 01c0 DBB2     		uxtb	r3, r3
 1727 01c2 1A1C     		mov	r2, r3
 1728 01c4 4023     		mov	r3, #64
 1729 01c6 1340     		and	r3, r2
 1730 01c8 0ED1     		bne	.L133
 1731              	.L128:
 511:../Sources/system/CrystalClock.c ****   for (i = 0 ; i < 2000 ; i++)
 1732              		.loc 1 511 0
 1733 01ca 3B1C     		mov	r3, r7
 1734 01cc 1633     		add	r3, r3, #22
 1735 01ce 3A1C     		mov	r2, r7
 1736 01d0 1632     		add	r2, r2, #22
 1737 01d2 1288     		ldrh	r2, [r2]
 1738 01d4 0132     		add	r2, r2, #1
 1739 01d6 1A80     		strh	r2, [r3]
 1740              	.L127:
 511:../Sources/system/CrystalClock.c ****   for (i = 0 ; i < 2000 ; i++)
 1741              		.loc 1 511 0 is_stmt 0
 1742 01d8 3B1C     		mov	r3, r7
 1743 01da 1633     		add	r3, r3, #22
 1744 01dc 0021     		mov	r1, #0
 1745 01de 5A5E     		ldrsh	r2, [r3, r1]
 1746 01e0 0E4B     		ldr	r3, .L134+20
 1747 01e2 9A42     		cmp	r2, r3
 1748 01e4 EADD     		ble	.L130
 1749 01e6 00E0     		b	.L129
 1750              	.L133:
 1751              		.loc 1 513 0 is_stmt 1
 1752 01e8 C046     		mov	r8, r8
 1753              	.L129:
 514:../Sources/system/CrystalClock.c ****   }
 515:../Sources/system/CrystalClock.c ****   if (!(MCG_S & MCG_S_LOCK0_MASK)) return 0x44; // check bit is really set and return with error if
 1754              		.loc 1 515 0
 1755 01ea 074B     		ldr	r3, .L134
 1756 01ec 9B79     		ldrb	r3, [r3, #6]
 1757 01ee DBB2     		uxtb	r3, r3
 1758 01f0 1A1C     		mov	r2, r3
 1759 01f2 4023     		mov	r3, #64
 1760 01f4 1340     		and	r3, r2
 1761 01f6 01D1     		bne	.L131
 1762              		.loc 1 515 0 is_stmt 0
 1763 01f8 4423     		mov	r3, #68
 1764 01fa 00E0     		b	.L113
 1765              	.L131:
 516:../Sources/system/CrystalClock.c ****     
 517:../Sources/system/CrystalClock.c **** // now in PBE 
 518:../Sources/system/CrystalClock.c ****   return crystal_val; // MCGOUT frequency equals external clock frequency
 1766              		.loc 1 518 0 is_stmt 1
 1767 01fc 7B68     		ldr	r3, [r7, #4]
 1768              	.L113:
 519:../Sources/system/CrystalClock.c **** } // fbe_pbe
 1769              		.loc 1 519 0
 1770 01fe 181C     		mov	r0, r3
 1771 0200 BD46     		mov	sp, r7
 1772 0202 06B0     		add	sp, sp, #24
 1773              		@ sp needed for prologue
 1774 0204 80BD     		pop	{r7, pc}
 1775              	.L135:
 1776 0206 C046     		.align	2
 1777              	.L134:
 1778 0208 00400640 		.word	1074151424
 1779 020c 7F841E00 		.word	1999999
 1780 0210 00093D00 		.word	4000000
 1781 0214 FF6BDC02 		.word	47999999
 1782 0218 00E1F505 		.word	100000000
 1783 021c CF070000 		.word	1999
 1784              		.cfi_endproc
 1785              	.LFE5:
 1787              		.section	.text.pbe_blpe,"ax",%progbits
 1788              		.align	2
 1789              		.global	pbe_blpe
 1790              		.code	16
 1791              		.thumb_func
 1793              	pbe_blpe:
 1794              	.LFB6:
 520:../Sources/system/CrystalClock.c **** 
 521:../Sources/system/CrystalClock.c **** 
 522:../Sources/system/CrystalClock.c **** int pbe_blpe(int crystal_val)
 523:../Sources/system/CrystalClock.c **** {
 1795              		.loc 1 523 0
 1796              		.cfi_startproc
 1797 0000 80B5     		push	{r7, lr}
 1798              	.LCFI18:
 1799              		.cfi_def_cfa_offset 8
 1800              		.cfi_offset 7, -8
 1801              		.cfi_offset 14, -4
 1802 0002 82B0     		sub	sp, sp, #8
 1803              	.LCFI19:
 1804              		.cfi_def_cfa_offset 16
 1805 0004 00AF     		add	r7, sp, #0
 1806              	.LCFI20:
 1807              		.cfi_def_cfa_register 7
 1808 0006 7860     		str	r0, [r7, #4]
 524:../Sources/system/CrystalClock.c **** // Check MCG is in PBE mode
 525:../Sources/system/CrystalClock.c ****   if (!((((MCG_S & MCG_S_CLKST_MASK) >> MCG_S_CLKST_SHIFT) == 0x2) && // check CLKS mux has selcted
 1809              		.loc 1 525 0
 1810 0008 164B     		ldr	r3, .L140
 1811 000a 9B79     		ldrb	r3, [r3, #6]
 1812 000c DBB2     		uxtb	r3, r3
 1813 000e 1A1C     		mov	r2, r3
 1814 0010 0C23     		mov	r3, #12
 1815 0012 1340     		and	r3, r2
 1816 0014 9B08     		lsr	r3, r3, #2
 1817 0016 022B     		cmp	r3, #2
 1818 0018 14D1     		bne	.L137
 526:../Sources/system/CrystalClock.c ****       (!(MCG_S & MCG_S_IREFST_MASK)) &&                               // check FLL ref is external 
 1819              		.loc 1 526 0
 1820 001a 124B     		ldr	r3, .L140
 1821 001c 9B79     		ldrb	r3, [r3, #6]
 1822 001e DBB2     		uxtb	r3, r3
 1823 0020 1A1C     		mov	r2, r3
 1824 0022 1023     		mov	r3, #16
 1825 0024 1340     		and	r3, r2
 525:../Sources/system/CrystalClock.c ****   if (!((((MCG_S & MCG_S_CLKST_MASK) >> MCG_S_CLKST_SHIFT) == 0x2) && // check CLKS mux has selcted
 1826              		.loc 1 525 0
 1827 0026 0DD1     		bne	.L137
 527:../Sources/system/CrystalClock.c ****       (MCG_S & MCG_S_PLLST_MASK) &&                                   // check PLLS mux has selecte
 1828              		.loc 1 527 0
 1829 0028 0E4B     		ldr	r3, .L140
 1830 002a 9B79     		ldrb	r3, [r3, #6]
 1831 002c DBB2     		uxtb	r3, r3
 1832 002e 1A1C     		mov	r2, r3
 1833 0030 2023     		mov	r3, #32
 1834 0032 1340     		and	r3, r2
 526:../Sources/system/CrystalClock.c ****       (!(MCG_S & MCG_S_IREFST_MASK)) &&                               // check FLL ref is external 
 1835              		.loc 1 526 0
 1836 0034 06D0     		beq	.L137
 528:../Sources/system/CrystalClock.c ****       (!(MCG_C2 & MCG_C2_LP_MASK))))                                  // check MCG_C2[LP] bit is no
 1837              		.loc 1 528 0
 1838 0036 0B4B     		ldr	r3, .L140
 1839 0038 5B78     		ldrb	r3, [r3, #1]
 1840 003a DBB2     		uxtb	r3, r3
 1841 003c 1A1C     		mov	r2, r3
 1842 003e 0223     		mov	r3, #2
 1843 0040 1340     		and	r3, r2
 525:../Sources/system/CrystalClock.c ****   if (!((((MCG_S & MCG_S_CLKST_MASK) >> MCG_S_CLKST_SHIFT) == 0x2) && // check CLKS mux has selcted
 1844              		.loc 1 525 0
 1845 0042 01D0     		beq	.L138
 1846              	.L137:
 529:../Sources/system/CrystalClock.c ****   {
 530:../Sources/system/CrystalClock.c ****     return 0x7;                                                       // return error code
 1847              		.loc 1 530 0
 1848 0044 0723     		mov	r3, #7
 1849 0046 08E0     		b	.L139
 1850              	.L138:
 531:../Sources/system/CrystalClock.c ****   }
 532:../Sources/system/CrystalClock.c ****   
 533:../Sources/system/CrystalClock.c **** // To enter BLPE mode the LP bit must be set, disabling the PLL  
 534:../Sources/system/CrystalClock.c ****   MCG_C2 |= MCG_C2_LP_MASK;
 1851              		.loc 1 534 0
 1852 0048 064B     		ldr	r3, .L140
 1853 004a 064A     		ldr	r2, .L140
 1854 004c 5278     		ldrb	r2, [r2, #1]
 1855 004e D2B2     		uxtb	r2, r2
 1856 0050 0221     		mov	r1, #2
 1857 0052 0A43     		orr	r2, r1
 1858 0054 D2B2     		uxtb	r2, r2
 1859 0056 5A70     		strb	r2, [r3, #1]
 535:../Sources/system/CrystalClock.c ****   
 536:../Sources/system/CrystalClock.c **** // Now in BLPE mode
 537:../Sources/system/CrystalClock.c ****   return crystal_val;  
 1860              		.loc 1 537 0
 1861 0058 7B68     		ldr	r3, [r7, #4]
 1862              	.L139:
 538:../Sources/system/CrystalClock.c **** } // pbe_blpe
 1863              		.loc 1 538 0
 1864 005a 181C     		mov	r0, r3
 1865 005c BD46     		mov	sp, r7
 1866 005e 02B0     		add	sp, sp, #8
 1867              		@ sp needed for prologue
 1868 0060 80BD     		pop	{r7, pc}
 1869              	.L141:
 1870 0062 C046     		.align	2
 1871              	.L140:
 1872 0064 00400640 		.word	1074151424
 1873              		.cfi_endproc
 1874              	.LFE6:
 1876              		.section	.text.blpe_pbe,"ax",%progbits
 1877              		.align	2
 1878              		.global	blpe_pbe
 1879              		.code	16
 1880              		.thumb_func
 1882              	blpe_pbe:
 1883              	.LFB7:
 539:../Sources/system/CrystalClock.c **** 
 540:../Sources/system/CrystalClock.c **** 
 541:../Sources/system/CrystalClock.c **** // ************************************************************************************************
 542:../Sources/system/CrystalClock.c **** // Since PBE mode can be enterred via FBE -> BLPE modes, it cannot be assumed that the PLL has been
 543:../Sources/system/CrystalClock.c **** // previously configured correctly. That is why this general purpose driver has the PLL settings as
 544:../Sources/system/CrystalClock.c **** // passed parameters.
 545:../Sources/system/CrystalClock.c **** // ************************************************************************************************
 546:../Sources/system/CrystalClock.c **** int blpe_pbe(int crystal_val, signed char prdiv_val, signed char vdiv_val)
 547:../Sources/system/CrystalClock.c **** {
 1884              		.loc 1 547 0
 1885              		.cfi_startproc
 1886 0000 80B5     		push	{r7, lr}
 1887              	.LCFI21:
 1888              		.cfi_def_cfa_offset 8
 1889              		.cfi_offset 7, -8
 1890              		.cfi_offset 14, -4
 1891 0002 84B0     		sub	sp, sp, #16
 1892              	.LCFI22:
 1893              		.cfi_def_cfa_offset 24
 1894 0004 00AF     		add	r7, sp, #0
 1895              	.LCFI23:
 1896              		.cfi_def_cfa_register 7
 1897 0006 7860     		str	r0, [r7, #4]
 1898 0008 FB1C     		add	r3, r7, #3
 1899 000a 1970     		strb	r1, [r3]
 1900 000c BB1C     		add	r3, r7, #2
 1901 000e 1A70     		strb	r2, [r3]
 548:../Sources/system/CrystalClock.c ****   unsigned char temp_reg;
 549:../Sources/system/CrystalClock.c ****   short i;
 550:../Sources/system/CrystalClock.c ****   
 551:../Sources/system/CrystalClock.c **** // Check MCG is in BLPE mode
 552:../Sources/system/CrystalClock.c ****   if (!((((MCG_S & MCG_S_CLKST_MASK) >> MCG_S_CLKST_SHIFT) == 0x2) && // check CLKS mux has selcted
 1902              		.loc 1 552 0
 1903 0010 724B     		ldr	r3, .L164
 1904 0012 9B79     		ldrb	r3, [r3, #6]
 1905 0014 DBB2     		uxtb	r3, r3
 1906 0016 1A1C     		mov	r2, r3
 1907 0018 0C23     		mov	r3, #12
 1908 001a 1340     		and	r3, r2
 1909 001c 9B08     		lsr	r3, r3, #2
 1910 001e 022B     		cmp	r3, #2
 1911 0020 0DD1     		bne	.L143
 553:../Sources/system/CrystalClock.c ****       (!(MCG_S & MCG_S_IREFST_MASK)) &&                               // check FLL ref is external 
 1912              		.loc 1 553 0
 1913 0022 6E4B     		ldr	r3, .L164
 1914 0024 9B79     		ldrb	r3, [r3, #6]
 1915 0026 DBB2     		uxtb	r3, r3
 1916 0028 1A1C     		mov	r2, r3
 1917 002a 1023     		mov	r3, #16
 1918 002c 1340     		and	r3, r2
 552:../Sources/system/CrystalClock.c ****   if (!((((MCG_S & MCG_S_CLKST_MASK) >> MCG_S_CLKST_SHIFT) == 0x2) && // check CLKS mux has selcted
 1919              		.loc 1 552 0
 1920 002e 06D1     		bne	.L143
 554:../Sources/system/CrystalClock.c ****       (MCG_C2 & MCG_C2_LP_MASK)))                                     // check MCG_C2[LP] bit is se
 1921              		.loc 1 554 0
 1922 0030 6A4B     		ldr	r3, .L164
 1923 0032 5B78     		ldrb	r3, [r3, #1]
 1924 0034 DBB2     		uxtb	r3, r3
 1925 0036 1A1C     		mov	r2, r3
 1926 0038 0223     		mov	r3, #2
 1927 003a 1340     		and	r3, r2
 552:../Sources/system/CrystalClock.c ****   if (!((((MCG_S & MCG_S_CLKST_MASK) >> MCG_S_CLKST_SHIFT) == 0x2) && // check CLKS mux has selcted
 1928              		.loc 1 552 0
 1929 003c 01D1     		bne	.L144
 1930              	.L143:
 555:../Sources/system/CrystalClock.c ****   {
 556:../Sources/system/CrystalClock.c ****     return 0x6;                                                       // return error code
 1931              		.loc 1 556 0
 1932 003e 0623     		mov	r3, #6
 1933 0040 C7E0     		b	.L145
 1934              	.L144:
 557:../Sources/system/CrystalClock.c ****   }
 558:../Sources/system/CrystalClock.c ****   
 559:../Sources/system/CrystalClock.c **** // As the external frequency has already been checked when FBE mode was enterred it is not checked 
 560:../Sources/system/CrystalClock.c **** 
 561:../Sources/system/CrystalClock.c **** // Check PLL divider settings are within spec.
 562:../Sources/system/CrystalClock.c ****   if ((prdiv_val < 1) || (prdiv_val > 25)) {return 0x41;}
 1935              		.loc 1 562 0
 1936 0042 FB1C     		add	r3, r7, #3
 1937 0044 1B78     		ldrb	r3, [r3]
 1938 0046 5BB2     		sxtb	r3, r3
 1939 0048 002B     		cmp	r3, #0
 1940 004a 04DD     		ble	.L146
 1941              		.loc 1 562 0 is_stmt 0
 1942 004c FB1C     		add	r3, r7, #3
 1943 004e 1B78     		ldrb	r3, [r3]
 1944 0050 5BB2     		sxtb	r3, r3
 1945 0052 192B     		cmp	r3, #25
 1946 0054 01DD     		ble	.L147
 1947              	.L146:
 1948              		.loc 1 562 0
 1949 0056 4123     		mov	r3, #65
 1950 0058 BBE0     		b	.L145
 1951              	.L147:
 563:../Sources/system/CrystalClock.c ****   if ((vdiv_val < 24) || (vdiv_val > 50)) {return 0x42;} 
 1952              		.loc 1 563 0 is_stmt 1
 1953 005a BB1C     		add	r3, r7, #2
 1954 005c 1B78     		ldrb	r3, [r3]
 1955 005e 5BB2     		sxtb	r3, r3
 1956 0060 172B     		cmp	r3, #23
 1957 0062 04DD     		ble	.L148
 1958              		.loc 1 563 0 is_stmt 0
 1959 0064 BB1C     		add	r3, r7, #2
 1960 0066 1B78     		ldrb	r3, [r3]
 1961 0068 5BB2     		sxtb	r3, r3
 1962 006a 322B     		cmp	r3, #50
 1963 006c 01DD     		ble	.L149
 1964              	.L148:
 1965              		.loc 1 563 0
 1966 006e 4223     		mov	r3, #66
 1967 0070 AFE0     		b	.L145
 1968              	.L149:
 564:../Sources/system/CrystalClock.c ****   
 565:../Sources/system/CrystalClock.c **** // Check PLL reference clock frequency is within spec.
 566:../Sources/system/CrystalClock.c ****   if (((crystal_val / prdiv_val) < 2000000) || ((crystal_val / prdiv_val) > 4000000)) {return 0x43;
 1969              		.loc 1 566 0 is_stmt 1
 1970 0072 FB1C     		add	r3, r7, #3
 1971 0074 1B78     		ldrb	r3, [r3]
 1972 0076 5BB2     		sxtb	r3, r3
 1973 0078 7868     		ldr	r0, [r7, #4]
 1974 007a 191C     		mov	r1, r3
 1975 007c FFF7FEFF 		bl	__aeabi_idiv
 1976 0080 031C     		mov	r3, r0
 1977 0082 1A1C     		mov	r2, r3
 1978 0084 564B     		ldr	r3, .L164+4
 1979 0086 9A42     		cmp	r2, r3
 1980 0088 0BDD     		ble	.L150
 1981              		.loc 1 566 0 is_stmt 0
 1982 008a FB1C     		add	r3, r7, #3
 1983 008c 1B78     		ldrb	r3, [r3]
 1984 008e 5BB2     		sxtb	r3, r3
 1985 0090 7868     		ldr	r0, [r7, #4]
 1986 0092 191C     		mov	r1, r3
 1987 0094 FFF7FEFF 		bl	__aeabi_idiv
 1988 0098 031C     		mov	r3, r0
 1989 009a 1A1C     		mov	r2, r3
 1990 009c 514B     		ldr	r3, .L164+8
 1991 009e 9A42     		cmp	r2, r3
 1992 00a0 01DD     		ble	.L151
 1993              	.L150:
 1994              		.loc 1 566 0
 1995 00a2 4323     		mov	r3, #67
 1996 00a4 95E0     		b	.L145
 1997              	.L151:
 567:../Sources/system/CrystalClock.c ****        
 568:../Sources/system/CrystalClock.c **** // If PRDIV, VDIV and the PLL ref clock are in spec. then the PLL frequency is within spec.
 569:../Sources/system/CrystalClock.c **** 
 570:../Sources/system/CrystalClock.c **** // Configure MCG_C5
 571:../Sources/system/CrystalClock.c **** // If the PLL is to run in STOP mode then the PLLSTEN bit needs to be OR'ed in here or in user code
 572:../Sources/system/CrystalClock.c ****   temp_reg = MCG_C5;
 1998              		.loc 1 572 0 is_stmt 1
 1999 00a6 4D4A     		ldr	r2, .L164
 2000 00a8 3B1C     		mov	r3, r7
 2001 00aa 0D33     		add	r3, r3, #13
 2002 00ac 1279     		ldrb	r2, [r2, #4]
 2003 00ae 1A70     		strb	r2, [r3]
 573:../Sources/system/CrystalClock.c ****   temp_reg &= ~MCG_C5_PRDIV0_MASK;
 2004              		.loc 1 573 0
 2005 00b0 3B1C     		mov	r3, r7
 2006 00b2 0D33     		add	r3, r3, #13
 2007 00b4 3A1C     		mov	r2, r7
 2008 00b6 0D32     		add	r2, r2, #13
 2009 00b8 1278     		ldrb	r2, [r2]
 2010 00ba 1F21     		mov	r1, #31
 2011 00bc 8A43     		bic	r2, r1
 2012 00be 1A70     		strb	r2, [r3]
 574:../Sources/system/CrystalClock.c ****   temp_reg |= MCG_C5_PRDIV0(prdiv_val - 1);    //set PLL ref divider
 2013              		.loc 1 574 0
 2014 00c0 FB1C     		add	r3, r7, #3
 2015 00c2 1B78     		ldrb	r3, [r3]
 2016 00c4 013B     		sub	r3, r3, #1
 2017 00c6 DAB2     		uxtb	r2, r3
 2018 00c8 1F23     		mov	r3, #31
 2019 00ca 1340     		and	r3, r2
 2020 00cc D9B2     		uxtb	r1, r3
 2021 00ce 3B1C     		mov	r3, r7
 2022 00d0 0D33     		add	r3, r3, #13
 2023 00d2 3A1C     		mov	r2, r7
 2024 00d4 0D32     		add	r2, r2, #13
 2025 00d6 1278     		ldrb	r2, [r2]
 2026 00d8 0A43     		orr	r2, r1
 2027 00da 1A70     		strb	r2, [r3]
 575:../Sources/system/CrystalClock.c ****   MCG_C5 = temp_reg;
 2028              		.loc 1 575 0
 2029 00dc 3F4B     		ldr	r3, .L164
 2030 00de 3A1C     		mov	r2, r7
 2031 00e0 0D32     		add	r2, r2, #13
 2032 00e2 1278     		ldrb	r2, [r2]
 2033 00e4 1A71     		strb	r2, [r3, #4]
 576:../Sources/system/CrystalClock.c **** 
 577:../Sources/system/CrystalClock.c **** // Configure MCG_C6
 578:../Sources/system/CrystalClock.c **** // The PLLS bit is set to enable the PLL, MCGOUT still sourced from ext ref clk 
 579:../Sources/system/CrystalClock.c **** // The clock monitor is not enabled here as it has likely been enabled previously and so the value 
 580:../Sources/system/CrystalClock.c **** // is not altered here.
 581:../Sources/system/CrystalClock.c **** // The loss of lock interrupt can be enabled by seperately OR'ing in the LOLIE bit in MCG_C6
 582:../Sources/system/CrystalClock.c ****   temp_reg = MCG_C6; // store present C6 value
 2034              		.loc 1 582 0
 2035 00e6 3D4A     		ldr	r2, .L164
 2036 00e8 3B1C     		mov	r3, r7
 2037 00ea 0D33     		add	r3, r3, #13
 2038 00ec 5279     		ldrb	r2, [r2, #5]
 2039 00ee 1A70     		strb	r2, [r3]
 583:../Sources/system/CrystalClock.c ****   temp_reg &= ~MCG_C6_VDIV0_MASK; // clear VDIV settings
 2040              		.loc 1 583 0
 2041 00f0 3B1C     		mov	r3, r7
 2042 00f2 0D33     		add	r3, r3, #13
 2043 00f4 3A1C     		mov	r2, r7
 2044 00f6 0D32     		add	r2, r2, #13
 2045 00f8 1278     		ldrb	r2, [r2]
 2046 00fa 1F21     		mov	r1, #31
 2047 00fc 8A43     		bic	r2, r1
 2048 00fe 1A70     		strb	r2, [r3]
 584:../Sources/system/CrystalClock.c ****   temp_reg |= MCG_C6_PLLS_MASK | MCG_C6_VDIV0(vdiv_val - 24); // write new VDIV and enable PLL
 2049              		.loc 1 584 0
 2050 0100 BB1C     		add	r3, r7, #2
 2051 0102 1B78     		ldrb	r3, [r3]
 2052 0104 183B     		sub	r3, r3, #24
 2053 0106 DAB2     		uxtb	r2, r3
 2054 0108 1F23     		mov	r3, #31
 2055 010a 1340     		and	r3, r2
 2056 010c DAB2     		uxtb	r2, r3
 2057 010e 3B1C     		mov	r3, r7
 2058 0110 0D33     		add	r3, r3, #13
 2059 0112 1B78     		ldrb	r3, [r3]
 2060 0114 1343     		orr	r3, r2
 2061 0116 DAB2     		uxtb	r2, r3
 2062 0118 3B1C     		mov	r3, r7
 2063 011a 0D33     		add	r3, r3, #13
 2064 011c 4021     		mov	r1, #64
 2065 011e 0A43     		orr	r2, r1
 2066 0120 1A70     		strb	r2, [r3]
 585:../Sources/system/CrystalClock.c ****   MCG_C6 = temp_reg; // update MCG_C6
 2067              		.loc 1 585 0
 2068 0122 2E4B     		ldr	r3, .L164
 2069 0124 3A1C     		mov	r2, r7
 2070 0126 0D32     		add	r2, r2, #13
 2071 0128 1278     		ldrb	r2, [r2]
 2072 012a 5A71     		strb	r2, [r3, #5]
 586:../Sources/system/CrystalClock.c ****   
 587:../Sources/system/CrystalClock.c **** // Now that PLL is configured, LP is cleared to enable the PLL
 588:../Sources/system/CrystalClock.c ****   MCG_C2 &= ~MCG_C2_LP_MASK;
 2073              		.loc 1 588 0
 2074 012c 2B4B     		ldr	r3, .L164
 2075 012e 2B4A     		ldr	r2, .L164
 2076 0130 5278     		ldrb	r2, [r2, #1]
 2077 0132 D2B2     		uxtb	r2, r2
 2078 0134 0221     		mov	r1, #2
 2079 0136 8A43     		bic	r2, r1
 2080 0138 D2B2     		uxtb	r2, r2
 2081 013a 5A70     		strb	r2, [r3, #1]
 589:../Sources/system/CrystalClock.c ****   
 590:../Sources/system/CrystalClock.c **** // wait for PLLST status bit to set
 591:../Sources/system/CrystalClock.c ****   for (i = 0 ; i < 2000 ; i++)
 2082              		.loc 1 591 0
 2083 013c 3B1C     		mov	r3, r7
 2084 013e 0E33     		add	r3, r3, #14
 2085 0140 0022     		mov	r2, #0
 2086 0142 1A80     		strh	r2, [r3]
 2087 0144 0DE0     		b	.L152
 2088              	.L155:
 592:../Sources/system/CrystalClock.c ****   {
 593:../Sources/system/CrystalClock.c ****     if (MCG_S & MCG_S_PLLST_MASK) break; // jump out early if PLLST sets before loop finishes
 2089              		.loc 1 593 0
 2090 0146 254B     		ldr	r3, .L164
 2091 0148 9B79     		ldrb	r3, [r3, #6]
 2092 014a DBB2     		uxtb	r3, r3
 2093 014c 1A1C     		mov	r2, r3
 2094 014e 2023     		mov	r3, #32
 2095 0150 1340     		and	r3, r2
 2096 0152 0ED1     		bne	.L162
 2097              	.L153:
 591:../Sources/system/CrystalClock.c ****   for (i = 0 ; i < 2000 ; i++)
 2098              		.loc 1 591 0
 2099 0154 3B1C     		mov	r3, r7
 2100 0156 0E33     		add	r3, r3, #14
 2101 0158 3A1C     		mov	r2, r7
 2102 015a 0E32     		add	r2, r2, #14
 2103 015c 1288     		ldrh	r2, [r2]
 2104 015e 0132     		add	r2, r2, #1
 2105 0160 1A80     		strh	r2, [r3]
 2106              	.L152:
 591:../Sources/system/CrystalClock.c ****   for (i = 0 ; i < 2000 ; i++)
 2107              		.loc 1 591 0 is_stmt 0
 2108 0162 3B1C     		mov	r3, r7
 2109 0164 0E33     		add	r3, r3, #14
 2110 0166 0021     		mov	r1, #0
 2111 0168 5A5E     		ldrsh	r2, [r3, r1]
 2112 016a 1F4B     		ldr	r3, .L164+12
 2113 016c 9A42     		cmp	r2, r3
 2114 016e EADD     		ble	.L155
 2115 0170 00E0     		b	.L154
 2116              	.L162:
 2117              		.loc 1 593 0 is_stmt 1
 2118 0172 C046     		mov	r8, r8
 2119              	.L154:
 594:../Sources/system/CrystalClock.c ****   }
 595:../Sources/system/CrystalClock.c ****   if (!(MCG_S & MCG_S_PLLST_MASK)) return 0x16; // check bit is really set and return with error if
 2120              		.loc 1 595 0
 2121 0174 194B     		ldr	r3, .L164
 2122 0176 9B79     		ldrb	r3, [r3, #6]
 2123 0178 DBB2     		uxtb	r3, r3
 2124 017a 1A1C     		mov	r2, r3
 2125 017c 2023     		mov	r3, #32
 2126 017e 1340     		and	r3, r2
 2127 0180 01D1     		bne	.L156
 2128              		.loc 1 595 0 is_stmt 0
 2129 0182 1623     		mov	r3, #22
 2130 0184 25E0     		b	.L145
 2131              	.L156:
 596:../Sources/system/CrystalClock.c **** 
 597:../Sources/system/CrystalClock.c **** // Wait for LOCK bit to set
 598:../Sources/system/CrystalClock.c ****   for (i = 0 ; i < 2000 ; i++)
 2132              		.loc 1 598 0 is_stmt 1
 2133 0186 3B1C     		mov	r3, r7
 2134 0188 0E33     		add	r3, r3, #14
 2135 018a 0022     		mov	r2, #0
 2136 018c 1A80     		strh	r2, [r3]
 2137 018e 0DE0     		b	.L157
 2138              	.L160:
 599:../Sources/system/CrystalClock.c ****   {
 600:../Sources/system/CrystalClock.c ****     if (MCG_S & MCG_S_LOCK0_MASK) break; // jump out early if LOCK sets before loop finishes
 2139              		.loc 1 600 0
 2140 0190 124B     		ldr	r3, .L164
 2141 0192 9B79     		ldrb	r3, [r3, #6]
 2142 0194 DBB2     		uxtb	r3, r3
 2143 0196 1A1C     		mov	r2, r3
 2144 0198 4023     		mov	r3, #64
 2145 019a 1340     		and	r3, r2
 2146 019c 0ED1     		bne	.L163
 2147              	.L158:
 598:../Sources/system/CrystalClock.c ****   for (i = 0 ; i < 2000 ; i++)
 2148              		.loc 1 598 0
 2149 019e 3B1C     		mov	r3, r7
 2150 01a0 0E33     		add	r3, r3, #14
 2151 01a2 3A1C     		mov	r2, r7
 2152 01a4 0E32     		add	r2, r2, #14
 2153 01a6 1288     		ldrh	r2, [r2]
 2154 01a8 0132     		add	r2, r2, #1
 2155 01aa 1A80     		strh	r2, [r3]
 2156              	.L157:
 598:../Sources/system/CrystalClock.c ****   for (i = 0 ; i < 2000 ; i++)
 2157              		.loc 1 598 0 is_stmt 0
 2158 01ac 3B1C     		mov	r3, r7
 2159 01ae 0E33     		add	r3, r3, #14
 2160 01b0 0021     		mov	r1, #0
 2161 01b2 5A5E     		ldrsh	r2, [r3, r1]
 2162 01b4 0C4B     		ldr	r3, .L164+12
 2163 01b6 9A42     		cmp	r2, r3
 2164 01b8 EADD     		ble	.L160
 2165 01ba 00E0     		b	.L159
 2166              	.L163:
 2167              		.loc 1 600 0 is_stmt 1
 2168 01bc C046     		mov	r8, r8
 2169              	.L159:
 601:../Sources/system/CrystalClock.c ****   }
 602:../Sources/system/CrystalClock.c ****   if (!(MCG_S & MCG_S_LOCK0_MASK)) return 0x44; // check bit is really set and return with error if
 2170              		.loc 1 602 0
 2171 01be 074B     		ldr	r3, .L164
 2172 01c0 9B79     		ldrb	r3, [r3, #6]
 2173 01c2 DBB2     		uxtb	r3, r3
 2174 01c4 1A1C     		mov	r2, r3
 2175 01c6 4023     		mov	r3, #64
 2176 01c8 1340     		and	r3, r2
 2177 01ca 01D1     		bne	.L161
 2178              		.loc 1 602 0 is_stmt 0
 2179 01cc 4423     		mov	r3, #68
 2180 01ce 00E0     		b	.L145
 2181              	.L161:
 603:../Sources/system/CrystalClock.c **** 
 604:../Sources/system/CrystalClock.c **** // now in PBE 
 605:../Sources/system/CrystalClock.c ****   return crystal_val; // MCGOUT frequency equals external clock frequency  
 2182              		.loc 1 605 0 is_stmt 1
 2183 01d0 7B68     		ldr	r3, [r7, #4]
 2184              	.L145:
 606:../Sources/system/CrystalClock.c **** } // blpe_pbe
 2185              		.loc 1 606 0
 2186 01d2 181C     		mov	r0, r3
 2187 01d4 BD46     		mov	sp, r7
 2188 01d6 04B0     		add	sp, sp, #16
 2189              		@ sp needed for prologue
 2190 01d8 80BD     		pop	{r7, pc}
 2191              	.L165:
 2192 01da C046     		.align	2
 2193              	.L164:
 2194 01dc 00400640 		.word	1074151424
 2195 01e0 7F841E00 		.word	1999999
 2196 01e4 00093D00 		.word	4000000
 2197 01e8 CF070000 		.word	1999
 2198              		.cfi_endproc
 2199              	.LFE7:
 2201              		.section	.text.blpe_fbe,"ax",%progbits
 2202              		.align	2
 2203              		.global	blpe_fbe
 2204              		.code	16
 2205              		.thumb_func
 2207              	blpe_fbe:
 2208              	.LFB8:
 607:../Sources/system/CrystalClock.c **** 
 608:../Sources/system/CrystalClock.c **** 
 609:../Sources/system/CrystalClock.c **** int blpe_fbe(int crystal_val)
 610:../Sources/system/CrystalClock.c **** {
 2209              		.loc 1 610 0
 2210              		.cfi_startproc
 2211 0000 80B5     		push	{r7, lr}
 2212              	.LCFI24:
 2213              		.cfi_def_cfa_offset 8
 2214              		.cfi_offset 7, -8
 2215              		.cfi_offset 14, -4
 2216 0002 84B0     		sub	sp, sp, #16
 2217              	.LCFI25:
 2218              		.cfi_def_cfa_offset 24
 2219 0004 00AF     		add	r7, sp, #0
 2220              	.LCFI26:
 2221              		.cfi_def_cfa_register 7
 2222 0006 7860     		str	r0, [r7, #4]
 611:../Sources/system/CrystalClock.c ****   short i;
 612:../Sources/system/CrystalClock.c ****   
 613:../Sources/system/CrystalClock.c **** // Check MCG is in BLPE mode
 614:../Sources/system/CrystalClock.c ****   if (!((((MCG_S & MCG_S_CLKST_MASK) >> MCG_S_CLKST_SHIFT) == 0x2) && // check CLKS mux has selcted
 2223              		.loc 1 614 0
 2224 0008 294B     		ldr	r3, .L176
 2225 000a 9B79     		ldrb	r3, [r3, #6]
 2226 000c DBB2     		uxtb	r3, r3
 2227 000e 1A1C     		mov	r2, r3
 2228 0010 0C23     		mov	r3, #12
 2229 0012 1340     		and	r3, r2
 2230 0014 9B08     		lsr	r3, r3, #2
 2231 0016 022B     		cmp	r3, #2
 2232 0018 0DD1     		bne	.L167
 615:../Sources/system/CrystalClock.c ****       (!(MCG_S & MCG_S_IREFST_MASK)) &&                               // check FLL ref is external 
 2233              		.loc 1 615 0
 2234 001a 254B     		ldr	r3, .L176
 2235 001c 9B79     		ldrb	r3, [r3, #6]
 2236 001e DBB2     		uxtb	r3, r3
 2237 0020 1A1C     		mov	r2, r3
 2238 0022 1023     		mov	r3, #16
 2239 0024 1340     		and	r3, r2
 614:../Sources/system/CrystalClock.c ****   if (!((((MCG_S & MCG_S_CLKST_MASK) >> MCG_S_CLKST_SHIFT) == 0x2) && // check CLKS mux has selcted
 2240              		.loc 1 614 0
 2241 0026 06D1     		bne	.L167
 616:../Sources/system/CrystalClock.c ****       (MCG_C2 & MCG_C2_LP_MASK)))                                     // check MCG_C2[LP] bit is se
 2242              		.loc 1 616 0
 2243 0028 214B     		ldr	r3, .L176
 2244 002a 5B78     		ldrb	r3, [r3, #1]
 2245 002c DBB2     		uxtb	r3, r3
 2246 002e 1A1C     		mov	r2, r3
 2247 0030 0223     		mov	r3, #2
 2248 0032 1340     		and	r3, r2
 614:../Sources/system/CrystalClock.c ****   if (!((((MCG_S & MCG_S_CLKST_MASK) >> MCG_S_CLKST_SHIFT) == 0x2) && // check CLKS mux has selcted
 2249              		.loc 1 614 0
 2250 0034 01D1     		bne	.L168
 2251              	.L167:
 617:../Sources/system/CrystalClock.c ****   {
 618:../Sources/system/CrystalClock.c ****     return 0x6;                                                       // return error code
 2252              		.loc 1 618 0
 2253 0036 0623     		mov	r3, #6
 2254 0038 35E0     		b	.L169
 2255              	.L168:
 619:../Sources/system/CrystalClock.c ****   }
 620:../Sources/system/CrystalClock.c ****  
 621:../Sources/system/CrystalClock.c **** // To move from BLPE to FBE the PLLS mux be set to select the FLL output and the LP bit must be cle
 622:../Sources/system/CrystalClock.c ****   MCG_C6 &= ~MCG_C6_PLLS_MASK; // clear PLLS to select the FLL
 2256              		.loc 1 622 0
 2257 003a 1D4B     		ldr	r3, .L176
 2258 003c 1C4A     		ldr	r2, .L176
 2259 003e 5279     		ldrb	r2, [r2, #5]
 2260 0040 D2B2     		uxtb	r2, r2
 2261 0042 4021     		mov	r1, #64
 2262 0044 8A43     		bic	r2, r1
 2263 0046 D2B2     		uxtb	r2, r2
 2264 0048 5A71     		strb	r2, [r3, #5]
 623:../Sources/system/CrystalClock.c ****   MCG_C2 &= ~MCG_C2_LP_MASK; // clear LP bit  
 2265              		.loc 1 623 0
 2266 004a 194B     		ldr	r3, .L176
 2267 004c 184A     		ldr	r2, .L176
 2268 004e 5278     		ldrb	r2, [r2, #1]
 2269 0050 D2B2     		uxtb	r2, r2
 2270 0052 0221     		mov	r1, #2
 2271 0054 8A43     		bic	r2, r1
 2272 0056 D2B2     		uxtb	r2, r2
 2273 0058 5A70     		strb	r2, [r3, #1]
 624:../Sources/system/CrystalClock.c **** 
 625:../Sources/system/CrystalClock.c **** // wait for PLLST status bit to clear
 626:../Sources/system/CrystalClock.c ****   for (i = 0 ; i < 2000 ; i++)
 2274              		.loc 1 626 0
 2275 005a 3B1C     		mov	r3, r7
 2276 005c 0E33     		add	r3, r3, #14
 2277 005e 0022     		mov	r2, #0
 2278 0060 1A80     		strh	r2, [r3]
 2279 0062 0DE0     		b	.L170
 2280              	.L173:
 627:../Sources/system/CrystalClock.c ****   {
 628:../Sources/system/CrystalClock.c ****     if (!(MCG_S & MCG_S_PLLST_MASK)) break; // jump out early if PLLST clears before loop finishes
 2281              		.loc 1 628 0
 2282 0064 124B     		ldr	r3, .L176
 2283 0066 9B79     		ldrb	r3, [r3, #6]
 2284 0068 DBB2     		uxtb	r3, r3
 2285 006a 1A1C     		mov	r2, r3
 2286 006c 2023     		mov	r3, #32
 2287 006e 1340     		and	r3, r2
 2288 0070 0ED0     		beq	.L175
 2289              	.L171:
 626:../Sources/system/CrystalClock.c ****   for (i = 0 ; i < 2000 ; i++)
 2290              		.loc 1 626 0
 2291 0072 3B1C     		mov	r3, r7
 2292 0074 0E33     		add	r3, r3, #14
 2293 0076 3A1C     		mov	r2, r7
 2294 0078 0E32     		add	r2, r2, #14
 2295 007a 1288     		ldrh	r2, [r2]
 2296 007c 0132     		add	r2, r2, #1
 2297 007e 1A80     		strh	r2, [r3]
 2298              	.L170:
 626:../Sources/system/CrystalClock.c ****   for (i = 0 ; i < 2000 ; i++)
 2299              		.loc 1 626 0 is_stmt 0
 2300 0080 3B1C     		mov	r3, r7
 2301 0082 0E33     		add	r3, r3, #14
 2302 0084 0021     		mov	r1, #0
 2303 0086 5A5E     		ldrsh	r2, [r3, r1]
 2304 0088 0A4B     		ldr	r3, .L176+4
 2305 008a 9A42     		cmp	r2, r3
 2306 008c EADD     		ble	.L173
 2307 008e 00E0     		b	.L172
 2308              	.L175:
 2309              		.loc 1 628 0 is_stmt 1
 2310 0090 C046     		mov	r8, r8
 2311              	.L172:
 629:../Sources/system/CrystalClock.c ****   }
 630:../Sources/system/CrystalClock.c ****   if (MCG_S & MCG_S_PLLST_MASK) return 0x15; // check bit is really clear and return with error if 
 2312              		.loc 1 630 0
 2313 0092 074B     		ldr	r3, .L176
 2314 0094 9B79     		ldrb	r3, [r3, #6]
 2315 0096 DBB2     		uxtb	r3, r3
 2316 0098 1A1C     		mov	r2, r3
 2317 009a 2023     		mov	r3, #32
 2318 009c 1340     		and	r3, r2
 2319 009e 01D0     		beq	.L174
 2320              		.loc 1 630 0 is_stmt 0
 2321 00a0 1523     		mov	r3, #21
 2322 00a2 00E0     		b	.L169
 2323              	.L174:
 631:../Sources/system/CrystalClock.c ****   
 632:../Sources/system/CrystalClock.c **** // now in FBE mode
 633:../Sources/system/CrystalClock.c ****   return crystal_val; // MCGOUT frequency equals external clock frequency     
 2324              		.loc 1 633 0 is_stmt 1
 2325 00a4 7B68     		ldr	r3, [r7, #4]
 2326              	.L169:
 634:../Sources/system/CrystalClock.c **** } // blpe_fbe
 2327              		.loc 1 634 0
 2328 00a6 181C     		mov	r0, r3
 2329 00a8 BD46     		mov	sp, r7
 2330 00aa 04B0     		add	sp, sp, #16
 2331              		@ sp needed for prologue
 2332 00ac 80BD     		pop	{r7, pc}
 2333              	.L177:
 2334 00ae C046     		.align	2
 2335              	.L176:
 2336 00b0 00400640 		.word	1074151424
 2337 00b4 CF070000 		.word	1999
 2338              		.cfi_endproc
 2339              	.LFE8:
 2341              		.section	.text.fbe_blpe,"ax",%progbits
 2342              		.align	2
 2343              		.global	fbe_blpe
 2344              		.code	16
 2345              		.thumb_func
 2347              	fbe_blpe:
 2348              	.LFB9:
 635:../Sources/system/CrystalClock.c **** 
 636:../Sources/system/CrystalClock.c **** 
 637:../Sources/system/CrystalClock.c **** int fbe_blpe(int crystal_val)
 638:../Sources/system/CrystalClock.c **** {
 2349              		.loc 1 638 0
 2350              		.cfi_startproc
 2351 0000 80B5     		push	{r7, lr}
 2352              	.LCFI27:
 2353              		.cfi_def_cfa_offset 8
 2354              		.cfi_offset 7, -8
 2355              		.cfi_offset 14, -4
 2356 0002 82B0     		sub	sp, sp, #8
 2357              	.LCFI28:
 2358              		.cfi_def_cfa_offset 16
 2359 0004 00AF     		add	r7, sp, #0
 2360              	.LCFI29:
 2361              		.cfi_def_cfa_register 7
 2362 0006 7860     		str	r0, [r7, #4]
 639:../Sources/system/CrystalClock.c **** // Check MCG is in FBE mode
 640:../Sources/system/CrystalClock.c ****   if (!((((MCG_S & MCG_S_CLKST_MASK) >> MCG_S_CLKST_SHIFT) == 0x2) && // check CLKS mux has selcted
 2363              		.loc 1 640 0
 2364 0008 164B     		ldr	r3, .L182
 2365 000a 9B79     		ldrb	r3, [r3, #6]
 2366 000c DBB2     		uxtb	r3, r3
 2367 000e 1A1C     		mov	r2, r3
 2368 0010 0C23     		mov	r3, #12
 2369 0012 1340     		and	r3, r2
 2370 0014 9B08     		lsr	r3, r3, #2
 2371 0016 022B     		cmp	r3, #2
 2372 0018 14D1     		bne	.L179
 641:../Sources/system/CrystalClock.c ****       (!(MCG_S & MCG_S_IREFST_MASK)) &&                               // check FLL ref is external 
 2373              		.loc 1 641 0
 2374 001a 124B     		ldr	r3, .L182
 2375 001c 9B79     		ldrb	r3, [r3, #6]
 2376 001e DBB2     		uxtb	r3, r3
 2377 0020 1A1C     		mov	r2, r3
 2378 0022 1023     		mov	r3, #16
 2379 0024 1340     		and	r3, r2
 640:../Sources/system/CrystalClock.c ****   if (!((((MCG_S & MCG_S_CLKST_MASK) >> MCG_S_CLKST_SHIFT) == 0x2) && // check CLKS mux has selcted
 2380              		.loc 1 640 0
 2381 0026 0DD1     		bne	.L179
 642:../Sources/system/CrystalClock.c ****       (!(MCG_S & MCG_S_PLLST_MASK)) &&                                // check PLLS mux has selecte
 2382              		.loc 1 642 0
 2383 0028 0E4B     		ldr	r3, .L182
 2384 002a 9B79     		ldrb	r3, [r3, #6]
 2385 002c DBB2     		uxtb	r3, r3
 2386 002e 1A1C     		mov	r2, r3
 2387 0030 2023     		mov	r3, #32
 2388 0032 1340     		and	r3, r2
 641:../Sources/system/CrystalClock.c ****       (!(MCG_S & MCG_S_IREFST_MASK)) &&                               // check FLL ref is external 
 2389              		.loc 1 641 0
 2390 0034 06D1     		bne	.L179
 643:../Sources/system/CrystalClock.c ****       (!(MCG_C2 & MCG_C2_LP_MASK))))                                  // check MCG_C2[LP] bit is no
 2391              		.loc 1 643 0
 2392 0036 0B4B     		ldr	r3, .L182
 2393 0038 5B78     		ldrb	r3, [r3, #1]
 2394 003a DBB2     		uxtb	r3, r3
 2395 003c 1A1C     		mov	r2, r3
 2396 003e 0223     		mov	r3, #2
 2397 0040 1340     		and	r3, r2
 640:../Sources/system/CrystalClock.c ****   if (!((((MCG_S & MCG_S_CLKST_MASK) >> MCG_S_CLKST_SHIFT) == 0x2) && // check CLKS mux has selcted
 2398              		.loc 1 640 0
 2399 0042 01D0     		beq	.L180
 2400              	.L179:
 644:../Sources/system/CrystalClock.c ****   {
 645:../Sources/system/CrystalClock.c ****     return 0x4;                                                       // return error code
 2401              		.loc 1 645 0
 2402 0044 0423     		mov	r3, #4
 2403 0046 08E0     		b	.L181
 2404              	.L180:
 646:../Sources/system/CrystalClock.c ****   }
 647:../Sources/system/CrystalClock.c ****  
 648:../Sources/system/CrystalClock.c **** // To move from FBE to BLPE the LP bit must be set
 649:../Sources/system/CrystalClock.c ****   MCG_C2 |= MCG_C2_LP_MASK; // set LP bit  
 2405              		.loc 1 649 0
 2406 0048 064B     		ldr	r3, .L182
 2407 004a 064A     		ldr	r2, .L182
 2408 004c 5278     		ldrb	r2, [r2, #1]
 2409 004e D2B2     		uxtb	r2, r2
 2410 0050 0221     		mov	r1, #2
 2411 0052 0A43     		orr	r2, r1
 2412 0054 D2B2     		uxtb	r2, r2
 2413 0056 5A70     		strb	r2, [r3, #1]
 650:../Sources/system/CrystalClock.c ****  
 651:../Sources/system/CrystalClock.c **** // now in FBE mode
 652:../Sources/system/CrystalClock.c ****   return crystal_val; // MCGOUT frequency equals external clock frequency     
 2414              		.loc 1 652 0
 2415 0058 7B68     		ldr	r3, [r7, #4]
 2416              	.L181:
 653:../Sources/system/CrystalClock.c **** } // fbe_blpe
 2417              		.loc 1 653 0
 2418 005a 181C     		mov	r0, r3
 2419 005c BD46     		mov	sp, r7
 2420 005e 02B0     		add	sp, sp, #8
 2421              		@ sp needed for prologue
 2422 0060 80BD     		pop	{r7, pc}
 2423              	.L183:
 2424 0062 C046     		.align	2
 2425              	.L182:
 2426 0064 00400640 		.word	1074151424
 2427              		.cfi_endproc
 2428              	.LFE9:
 2430              		.section	.text.fbe_fei,"ax",%progbits
 2431              		.align	2
 2432              		.global	fbe_fei
 2433              		.code	16
 2434              		.thumb_func
 2436              	fbe_fei:
 2437              	.LFB10:
 654:../Sources/system/CrystalClock.c **** 
 655:../Sources/system/CrystalClock.c **** 
 656:../Sources/system/CrystalClock.c **** int fbe_fei(int slow_irc_freq)
 657:../Sources/system/CrystalClock.c **** {
 2438              		.loc 1 657 0
 2439              		.cfi_startproc
 2440 0000 80B5     		push	{r7, lr}
 2441              	.LCFI30:
 2442              		.cfi_def_cfa_offset 8
 2443              		.cfi_offset 7, -8
 2444              		.cfi_offset 14, -4
 2445 0002 86B0     		sub	sp, sp, #24
 2446              	.LCFI31:
 2447              		.cfi_def_cfa_offset 32
 2448 0004 00AF     		add	r7, sp, #0
 2449              	.LCFI32:
 2450              		.cfi_def_cfa_register 7
 2451 0006 7860     		str	r0, [r7, #4]
 658:../Sources/system/CrystalClock.c ****   unsigned char temp_reg;
 659:../Sources/system/CrystalClock.c ****   short i;
 660:../Sources/system/CrystalClock.c ****   int mcg_out;
 661:../Sources/system/CrystalClock.c ****   
 662:../Sources/system/CrystalClock.c **** // Check MCG is in FBE mode
 663:../Sources/system/CrystalClock.c ****   if (!((((MCG_S & MCG_S_CLKST_MASK) >> MCG_S_CLKST_SHIFT) == 0x2) && // check CLKS mux has selcted
 2452              		.loc 1 663 0
 2453 0008 534B     		ldr	r3, .L203
 2454 000a 9B79     		ldrb	r3, [r3, #6]
 2455 000c DBB2     		uxtb	r3, r3
 2456 000e 1A1C     		mov	r2, r3
 2457 0010 0C23     		mov	r3, #12
 2458 0012 1340     		and	r3, r2
 2459 0014 9B08     		lsr	r3, r3, #2
 2460 0016 022B     		cmp	r3, #2
 2461 0018 14D1     		bne	.L185
 664:../Sources/system/CrystalClock.c ****       (!(MCG_S & MCG_S_IREFST_MASK)) &&                               // check FLL ref is external 
 2462              		.loc 1 664 0
 2463 001a 4F4B     		ldr	r3, .L203
 2464 001c 9B79     		ldrb	r3, [r3, #6]
 2465 001e DBB2     		uxtb	r3, r3
 2466 0020 1A1C     		mov	r2, r3
 2467 0022 1023     		mov	r3, #16
 2468 0024 1340     		and	r3, r2
 663:../Sources/system/CrystalClock.c ****   if (!((((MCG_S & MCG_S_CLKST_MASK) >> MCG_S_CLKST_SHIFT) == 0x2) && // check CLKS mux has selcted
 2469              		.loc 1 663 0
 2470 0026 0DD1     		bne	.L185
 665:../Sources/system/CrystalClock.c ****       (!(MCG_S & MCG_S_PLLST_MASK)) &&                                // check PLLS mux has selecte
 2471              		.loc 1 665 0
 2472 0028 4B4B     		ldr	r3, .L203
 2473 002a 9B79     		ldrb	r3, [r3, #6]
 2474 002c DBB2     		uxtb	r3, r3
 2475 002e 1A1C     		mov	r2, r3
 2476 0030 2023     		mov	r3, #32
 2477 0032 1340     		and	r3, r2
 664:../Sources/system/CrystalClock.c ****       (!(MCG_S & MCG_S_IREFST_MASK)) &&                               // check FLL ref is external 
 2478              		.loc 1 664 0
 2479 0034 06D1     		bne	.L185
 666:../Sources/system/CrystalClock.c ****       (!(MCG_C2 & MCG_C2_LP_MASK))))                                  // check MCG_C2[LP] bit is no
 2480              		.loc 1 666 0
 2481 0036 484B     		ldr	r3, .L203
 2482 0038 5B78     		ldrb	r3, [r3, #1]
 2483 003a DBB2     		uxtb	r3, r3
 2484 003c 1A1C     		mov	r2, r3
 2485 003e 0223     		mov	r3, #2
 2486 0040 1340     		and	r3, r2
 663:../Sources/system/CrystalClock.c ****   if (!((((MCG_S & MCG_S_CLKST_MASK) >> MCG_S_CLKST_SHIFT) == 0x2) && // check CLKS mux has selcted
 2487              		.loc 1 663 0
 2488 0042 01D0     		beq	.L186
 2489              	.L185:
 667:../Sources/system/CrystalClock.c ****   {
 668:../Sources/system/CrystalClock.c ****     return 0x4;                                                       // return error code
 2490              		.loc 1 668 0
 2491 0044 0423     		mov	r3, #4
 2492 0046 83E0     		b	.L187
 2493              	.L186:
 669:../Sources/system/CrystalClock.c ****   }
 670:../Sources/system/CrystalClock.c **** 
 671:../Sources/system/CrystalClock.c **** // Check IRC frequency is within spec.
 672:../Sources/system/CrystalClock.c ****   if ((slow_irc_freq < 31250) || (slow_irc_freq > 39063))
 2494              		.loc 1 672 0
 2495 0048 7A68     		ldr	r2, [r7, #4]
 2496 004a 444B     		ldr	r3, .L203+4
 2497 004c 9A42     		cmp	r2, r3
 2498 004e 03DD     		ble	.L188
 2499              		.loc 1 672 0 is_stmt 0
 2500 0050 7A68     		ldr	r2, [r7, #4]
 2501 0052 434B     		ldr	r3, .L203+8
 2502 0054 9A42     		cmp	r2, r3
 2503 0056 01DD     		ble	.L189
 2504              	.L188:
 673:../Sources/system/CrystalClock.c ****   {
 674:../Sources/system/CrystalClock.c ****     return 0x31;
 2505              		.loc 1 674 0 is_stmt 1
 2506 0058 3123     		mov	r3, #49
 2507 005a 79E0     		b	.L187
 2508              	.L189:
 675:../Sources/system/CrystalClock.c ****   }
 676:../Sources/system/CrystalClock.c ****   
 677:../Sources/system/CrystalClock.c **** // Check resulting FLL frequency 
 678:../Sources/system/CrystalClock.c ****   mcg_out = fll_freq(slow_irc_freq); 
 2509              		.loc 1 678 0
 2510 005c 7B68     		ldr	r3, [r7, #4]
 2511 005e 181C     		mov	r0, r3
 2512 0060 FFF7FEFF 		bl	fll_freq
 2513 0064 031C     		mov	r3, r0
 2514 0066 3B61     		str	r3, [r7, #16]
 679:../Sources/system/CrystalClock.c ****   if (mcg_out < 0x3C) {return mcg_out;} // If error code returned, return the code to calling funct
 2515              		.loc 1 679 0
 2516 0068 3B69     		ldr	r3, [r7, #16]
 2517 006a 3B2B     		cmp	r3, #59
 2518 006c 01DC     		bgt	.L190
 2519              		.loc 1 679 0 is_stmt 0
 2520 006e 3B69     		ldr	r3, [r7, #16]
 2521 0070 6EE0     		b	.L187
 2522              	.L190:
 680:../Sources/system/CrystalClock.c **** 
 681:../Sources/system/CrystalClock.c **** // Need to make sure the clockmonitor is disabled before moving to an "internal" clock mode
 682:../Sources/system/CrystalClock.c ****   MCG_C6 &= ~MCG_C6_CME0_MASK; //This assumes OSC0 is used as the external clock source
 2523              		.loc 1 682 0 is_stmt 1
 2524 0072 394B     		ldr	r3, .L203
 2525 0074 384A     		ldr	r2, .L203
 2526 0076 5279     		ldrb	r2, [r2, #5]
 2527 0078 D2B2     		uxtb	r2, r2
 2528 007a 2021     		mov	r1, #32
 2529 007c 8A43     		bic	r2, r1
 2530 007e D2B2     		uxtb	r2, r2
 2531 0080 5A71     		strb	r2, [r3, #5]
 683:../Sources/system/CrystalClock.c ****   
 684:../Sources/system/CrystalClock.c **** // Move to FEI by setting CLKS to 0 and enabling the slow IRC as the FLL reference clock
 685:../Sources/system/CrystalClock.c ****   temp_reg = MCG_C1;
 2532              		.loc 1 685 0
 2533 0082 354A     		ldr	r2, .L203
 2534 0084 3B1C     		mov	r3, r7
 2535 0086 0F33     		add	r3, r3, #15
 2536 0088 1278     		ldrb	r2, [r2]
 2537 008a 1A70     		strb	r2, [r3]
 686:../Sources/system/CrystalClock.c ****   temp_reg &= ~MCG_C1_CLKS_MASK; // clear CLKS to select FLL output
 2538              		.loc 1 686 0
 2539 008c 3B1C     		mov	r3, r7
 2540 008e 0F33     		add	r3, r3, #15
 2541 0090 3A1C     		mov	r2, r7
 2542 0092 0F32     		add	r2, r2, #15
 2543 0094 1178     		ldrb	r1, [r2]
 2544 0096 3F22     		mov	r2, #63
 2545 0098 0A40     		and	r2, r1
 2546 009a 1A70     		strb	r2, [r3]
 687:../Sources/system/CrystalClock.c ****   temp_reg |= MCG_C1_IREFS_MASK; // select internal reference clock
 2547              		.loc 1 687 0
 2548 009c 3B1C     		mov	r3, r7
 2549 009e 0F33     		add	r3, r3, #15
 2550 00a0 3A1C     		mov	r2, r7
 2551 00a2 0F32     		add	r2, r2, #15
 2552 00a4 1278     		ldrb	r2, [r2]
 2553 00a6 0421     		mov	r1, #4
 2554 00a8 0A43     		orr	r2, r1
 2555 00aa 1A70     		strb	r2, [r3]
 688:../Sources/system/CrystalClock.c ****   MCG_C1 = temp_reg; // update MCG_C1 
 2556              		.loc 1 688 0
 2557 00ac 2A4B     		ldr	r3, .L203
 2558 00ae 3A1C     		mov	r2, r7
 2559 00b0 0F32     		add	r2, r2, #15
 2560 00b2 1278     		ldrb	r2, [r2]
 2561 00b4 1A70     		strb	r2, [r3]
 689:../Sources/system/CrystalClock.c ****   
 690:../Sources/system/CrystalClock.c **** // wait for Reference clock Status bit to set
 691:../Sources/system/CrystalClock.c ****   for (i = 0 ; i < 2000 ; i++)
 2562              		.loc 1 691 0
 2563 00b6 3B1C     		mov	r3, r7
 2564 00b8 1633     		add	r3, r3, #22
 2565 00ba 0022     		mov	r2, #0
 2566 00bc 1A80     		strh	r2, [r3]
 2567 00be 0DE0     		b	.L191
 2568              	.L194:
 692:../Sources/system/CrystalClock.c ****   {
 693:../Sources/system/CrystalClock.c ****     if (MCG_S & MCG_S_IREFST_MASK) break; // jump out early if IREFST sets before loop finishes
 2569              		.loc 1 693 0
 2570 00c0 254B     		ldr	r3, .L203
 2571 00c2 9B79     		ldrb	r3, [r3, #6]
 2572 00c4 DBB2     		uxtb	r3, r3
 2573 00c6 1A1C     		mov	r2, r3
 2574 00c8 1023     		mov	r3, #16
 2575 00ca 1340     		and	r3, r2
 2576 00cc 0ED1     		bne	.L201
 2577              	.L192:
 691:../Sources/system/CrystalClock.c ****   for (i = 0 ; i < 2000 ; i++)
 2578              		.loc 1 691 0
 2579 00ce 3B1C     		mov	r3, r7
 2580 00d0 1633     		add	r3, r3, #22
 2581 00d2 3A1C     		mov	r2, r7
 2582 00d4 1632     		add	r2, r2, #22
 2583 00d6 1288     		ldrh	r2, [r2]
 2584 00d8 0132     		add	r2, r2, #1
 2585 00da 1A80     		strh	r2, [r3]
 2586              	.L191:
 691:../Sources/system/CrystalClock.c ****   for (i = 0 ; i < 2000 ; i++)
 2587              		.loc 1 691 0 is_stmt 0
 2588 00dc 3B1C     		mov	r3, r7
 2589 00de 1633     		add	r3, r3, #22
 2590 00e0 0021     		mov	r1, #0
 2591 00e2 5A5E     		ldrsh	r2, [r3, r1]
 2592 00e4 1F4B     		ldr	r3, .L203+12
 2593 00e6 9A42     		cmp	r2, r3
 2594 00e8 EADD     		ble	.L194
 2595 00ea 00E0     		b	.L193
 2596              	.L201:
 2597              		.loc 1 693 0 is_stmt 1
 2598 00ec C046     		mov	r8, r8
 2599              	.L193:
 694:../Sources/system/CrystalClock.c ****   }
 695:../Sources/system/CrystalClock.c ****   if (!(MCG_S & MCG_S_IREFST_MASK)) return 0x12; // check bit is really set and return with error i
 2600              		.loc 1 695 0
 2601 00ee 1A4B     		ldr	r3, .L203
 2602 00f0 9B79     		ldrb	r3, [r3, #6]
 2603 00f2 DBB2     		uxtb	r3, r3
 2604 00f4 1A1C     		mov	r2, r3
 2605 00f6 1023     		mov	r3, #16
 2606 00f8 1340     		and	r3, r2
 2607 00fa 01D1     		bne	.L195
 2608              		.loc 1 695 0 is_stmt 0
 2609 00fc 1223     		mov	r3, #18
 2610 00fe 27E0     		b	.L187
 2611              	.L195:
 696:../Sources/system/CrystalClock.c ****   
 697:../Sources/system/CrystalClock.c **** // Wait for clock status bits to show clock source is ext ref clk
 698:../Sources/system/CrystalClock.c ****   for (i = 0 ; i < 2000 ; i++)
 2612              		.loc 1 698 0 is_stmt 1
 2613 0100 3B1C     		mov	r3, r7
 2614 0102 1633     		add	r3, r3, #22
 2615 0104 0022     		mov	r2, #0
 2616 0106 1A80     		strh	r2, [r3]
 2617 0108 0EE0     		b	.L196
 2618              	.L199:
 699:../Sources/system/CrystalClock.c ****   {
 700:../Sources/system/CrystalClock.c ****     if (((MCG_S & MCG_S_CLKST_MASK) >> MCG_S_CLKST_SHIFT) == 0x0) break; // jump out early if CLKST
 2619              		.loc 1 700 0
 2620 010a 134B     		ldr	r3, .L203
 2621 010c 9B79     		ldrb	r3, [r3, #6]
 2622 010e DBB2     		uxtb	r3, r3
 2623 0110 1A1C     		mov	r2, r3
 2624 0112 0C23     		mov	r3, #12
 2625 0114 1340     		and	r3, r2
 2626 0116 9B08     		lsr	r3, r3, #2
 2627 0118 0ED0     		beq	.L202
 2628              	.L197:
 698:../Sources/system/CrystalClock.c ****   for (i = 0 ; i < 2000 ; i++)
 2629              		.loc 1 698 0
 2630 011a 3B1C     		mov	r3, r7
 2631 011c 1633     		add	r3, r3, #22
 2632 011e 3A1C     		mov	r2, r7
 2633 0120 1632     		add	r2, r2, #22
 2634 0122 1288     		ldrh	r2, [r2]
 2635 0124 0132     		add	r2, r2, #1
 2636 0126 1A80     		strh	r2, [r3]
 2637              	.L196:
 698:../Sources/system/CrystalClock.c ****   for (i = 0 ; i < 2000 ; i++)
 2638              		.loc 1 698 0 is_stmt 0
 2639 0128 3B1C     		mov	r3, r7
 2640 012a 1633     		add	r3, r3, #22
 2641 012c 0021     		mov	r1, #0
 2642 012e 5A5E     		ldrsh	r2, [r3, r1]
 2643 0130 0C4B     		ldr	r3, .L203+12
 2644 0132 9A42     		cmp	r2, r3
 2645 0134 E9DD     		ble	.L199
 2646 0136 00E0     		b	.L198
 2647              	.L202:
 2648              		.loc 1 700 0 is_stmt 1
 2649 0138 C046     		mov	r8, r8
 2650              	.L198:
 701:../Sources/system/CrystalClock.c ****   }
 702:../Sources/system/CrystalClock.c ****   if (((MCG_S & MCG_S_CLKST_MASK) >> MCG_S_CLKST_SHIFT) != 0x0) return 0x18; // check EXT CLK is re
 2651              		.loc 1 702 0
 2652 013a 074B     		ldr	r3, .L203
 2653 013c 9B79     		ldrb	r3, [r3, #6]
 2654 013e DBB2     		uxtb	r3, r3
 2655 0140 1A1C     		mov	r2, r3
 2656 0142 0C23     		mov	r3, #12
 2657 0144 1340     		and	r3, r2
 2658 0146 9B08     		lsr	r3, r3, #2
 2659 0148 01D0     		beq	.L200
 2660              		.loc 1 702 0 is_stmt 0
 2661 014a 1823     		mov	r3, #24
 2662 014c 00E0     		b	.L187
 2663              	.L200:
 703:../Sources/system/CrystalClock.c **** 
 704:../Sources/system/CrystalClock.c **** // Now in FEI mode
 705:../Sources/system/CrystalClock.c ****   return mcg_out;
 2664              		.loc 1 705 0 is_stmt 1
 2665 014e 3B69     		ldr	r3, [r7, #16]
 2666              	.L187:
 706:../Sources/system/CrystalClock.c **** } // fbe_fei
 2667              		.loc 1 706 0
 2668 0150 181C     		mov	r0, r3
 2669 0152 BD46     		mov	sp, r7
 2670 0154 06B0     		add	sp, sp, #24
 2671              		@ sp needed for prologue
 2672 0156 80BD     		pop	{r7, pc}
 2673              	.L204:
 2674              		.align	2
 2675              	.L203:
 2676 0158 00400640 		.word	1074151424
 2677 015c 117A0000 		.word	31249
 2678 0160 97980000 		.word	39063
 2679 0164 CF070000 		.word	1999
 2680              		.cfi_endproc
 2681              	.LFE10:
 2683              		.section	.text.fei_fbe,"ax",%progbits
 2684              		.align	2
 2685              		.global	fei_fbe
 2686              		.code	16
 2687              		.thumb_func
 2689              	fei_fbe:
 2690              	.LFB11:
 707:../Sources/system/CrystalClock.c **** 
 708:../Sources/system/CrystalClock.c **** 
 709:../Sources/system/CrystalClock.c **** /********************************************************************/
 710:../Sources/system/CrystalClock.c **** /* Functon name : fei_fbe
 711:../Sources/system/CrystalClock.c ****  *
 712:../Sources/system/CrystalClock.c ****  * Mode transition: FEI to FBE mode
 713:../Sources/system/CrystalClock.c ****  *
 714:../Sources/system/CrystalClock.c ****  * This function transitions the MCG from FEI mode to FBE mode. This is
 715:../Sources/system/CrystalClock.c ****  * achieved by setting the MCG_C2[LP] bit. There is no status bit to 
 716:../Sources/system/CrystalClock.c ****  * check so 0 is always returned if the function was called with the MCG
 717:../Sources/system/CrystalClock.c ****  * in FBI mode. The MCGCLKOUT frequency does not change
 718:../Sources/system/CrystalClock.c ****  *
 719:../Sources/system/CrystalClock.c ****  * Parameters: crystal_val - external clock frequency in Hz
 720:../Sources/system/CrystalClock.c ****  *             hgo_val     - selects whether low power or high gain mode is selected
 721:../Sources/system/CrystalClock.c ****  *                           for the crystal oscillator. This has no meaning if an 
 722:../Sources/system/CrystalClock.c ****  *                           external clock is used.
 723:../Sources/system/CrystalClock.c ****  *             erefs_val   - selects external clock (=0) or crystal osc (=1)
 724:../Sources/system/CrystalClock.c ****  *
 725:../Sources/system/CrystalClock.c ****  * Return value : MCGCLKOUT frequency (Hz) or error code
 726:../Sources/system/CrystalClock.c ****  */
 727:../Sources/system/CrystalClock.c **** int fei_fbe(int crystal_val, unsigned char hgo_val, unsigned char erefs_val)
 728:../Sources/system/CrystalClock.c **** {
 2691              		.loc 1 728 0
 2692              		.cfi_startproc
 2693 0000 80B5     		push	{r7, lr}
 2694              	.LCFI33:
 2695              		.cfi_def_cfa_offset 8
 2696              		.cfi_offset 7, -8
 2697              		.cfi_offset 14, -4
 2698 0002 84B0     		sub	sp, sp, #16
 2699              	.LCFI34:
 2700              		.cfi_def_cfa_offset 24
 2701 0004 00AF     		add	r7, sp, #0
 2702              	.LCFI35:
 2703              		.cfi_def_cfa_register 7
 2704 0006 7860     		str	r0, [r7, #4]
 2705 0008 FB1C     		add	r3, r7, #3
 2706 000a 1970     		strb	r1, [r3]
 2707 000c BB1C     		add	r3, r7, #2
 2708 000e 1A70     		strb	r2, [r3]
 729:../Sources/system/CrystalClock.c ****   unsigned char frdiv_val;
 730:../Sources/system/CrystalClock.c ****   unsigned char temp_reg;
 731:../Sources/system/CrystalClock.c ****   short i;
 732:../Sources/system/CrystalClock.c ****   
 733:../Sources/system/CrystalClock.c **** // check if in FEI mode
 734:../Sources/system/CrystalClock.c ****   if (!((((MCG_S & MCG_S_CLKST_MASK) >> MCG_S_CLKST_SHIFT) == 0x0) && // check CLKS mux has selcted
 2709              		.loc 1 734 0
 2710 0010 B44B     		ldr	r3, .L241
 2711 0012 9B79     		ldrb	r3, [r3, #6]
 2712 0014 DBB2     		uxtb	r3, r3
 2713 0016 1A1C     		mov	r2, r3
 2714 0018 0C23     		mov	r3, #12
 2715 001a 1340     		and	r3, r2
 2716 001c 9B08     		lsr	r3, r3, #2
 2717 001e 0DD1     		bne	.L206
 735:../Sources/system/CrystalClock.c ****       (MCG_S & MCG_S_IREFST_MASK) &&                                  // check FLL ref is internal 
 2718              		.loc 1 735 0
 2719 0020 B04B     		ldr	r3, .L241
 2720 0022 9B79     		ldrb	r3, [r3, #6]
 2721 0024 DBB2     		uxtb	r3, r3
 2722 0026 1A1C     		mov	r2, r3
 2723 0028 1023     		mov	r3, #16
 2724 002a 1340     		and	r3, r2
 734:../Sources/system/CrystalClock.c ****   if (!((((MCG_S & MCG_S_CLKST_MASK) >> MCG_S_CLKST_SHIFT) == 0x0) && // check CLKS mux has selcted
 2725              		.loc 1 734 0
 2726 002c 06D0     		beq	.L206
 736:../Sources/system/CrystalClock.c ****       (!(MCG_S & MCG_S_PLLST_MASK))))                                 // check PLLS mux has selecte
 2727              		.loc 1 736 0
 2728 002e AD4B     		ldr	r3, .L241
 2729 0030 9B79     		ldrb	r3, [r3, #6]
 2730 0032 DBB2     		uxtb	r3, r3
 2731 0034 1A1C     		mov	r2, r3
 2732 0036 2023     		mov	r3, #32
 2733 0038 1340     		and	r3, r2
 734:../Sources/system/CrystalClock.c ****   if (!((((MCG_S & MCG_S_CLKST_MASK) >> MCG_S_CLKST_SHIFT) == 0x0) && // check CLKS mux has selcted
 2734              		.loc 1 734 0
 2735 003a 01D0     		beq	.L207
 2736              	.L206:
 737:../Sources/system/CrystalClock.c ****   {
 738:../Sources/system/CrystalClock.c ****     return 0x1;                                                     // return error code
 2737              		.loc 1 738 0
 2738 003c 0123     		mov	r3, #1
 2739 003e 4DE1     		b	.L208
 2740              	.L207:
 739:../Sources/system/CrystalClock.c ****   }
 740:../Sources/system/CrystalClock.c **** 
 741:../Sources/system/CrystalClock.c **** // check external frequency is less than the maximum frequency
 742:../Sources/system/CrystalClock.c ****   if  (crystal_val > 50000000) {return 0x21;}
 2741              		.loc 1 742 0
 2742 0040 7A68     		ldr	r2, [r7, #4]
 2743 0042 A94B     		ldr	r3, .L241+4
 2744 0044 9A42     		cmp	r2, r3
 2745 0046 01DD     		ble	.L209
 2746              		.loc 1 742 0 is_stmt 0
 2747 0048 2123     		mov	r3, #33
 2748 004a 47E1     		b	.L208
 2749              	.L209:
 743:../Sources/system/CrystalClock.c ****   
 744:../Sources/system/CrystalClock.c **** // check crystal frequency is within spec. if crystal osc is being used
 745:../Sources/system/CrystalClock.c ****   if (erefs_val)
 2750              		.loc 1 745 0 is_stmt 1
 2751 004c BB1C     		add	r3, r7, #2
 2752 004e 1B78     		ldrb	r3, [r3]
 2753 0050 002B     		cmp	r3, #0
 2754 0052 11D0     		beq	.L210
 746:../Sources/system/CrystalClock.c ****   {
 747:../Sources/system/CrystalClock.c ****     if ((crystal_val < 30000) ||
 2755              		.loc 1 747 0
 2756 0054 7A68     		ldr	r2, [r7, #4]
 2757 0056 A54B     		ldr	r3, .L241+8
 2758 0058 9A42     		cmp	r2, r3
 2759 005a 0BDD     		ble	.L211
 2760              		.loc 1 747 0 is_stmt 0
 2761 005c 7A68     		ldr	r2, [r7, #4]
 2762 005e A44B     		ldr	r3, .L241+12
 2763 0060 9A42     		cmp	r2, r3
 2764 0062 03DD     		ble	.L212
 748:../Sources/system/CrystalClock.c ****         ((crystal_val > 40000) && (crystal_val < 3000000)) ||
 2765              		.loc 1 748 0 is_stmt 1
 2766 0064 7A68     		ldr	r2, [r7, #4]
 2767 0066 A34B     		ldr	r3, .L241+16
 2768 0068 9A42     		cmp	r2, r3
 2769 006a 03DD     		ble	.L211
 2770              	.L212:
 2771              		.loc 1 748 0 is_stmt 0
 2772 006c 7A68     		ldr	r2, [r7, #4]
 2773 006e A24B     		ldr	r3, .L241+20
 2774 0070 9A42     		cmp	r2, r3
 2775 0072 01DD     		ble	.L210
 2776              	.L211:
 749:../Sources/system/CrystalClock.c ****         (crystal_val > 32000000)) {return 0x22;} // return error if one of the available crystal op
 2777              		.loc 1 749 0 is_stmt 1
 2778 0074 2223     		mov	r3, #34
 2779 0076 31E1     		b	.L208
 2780              	.L210:
 750:../Sources/system/CrystalClock.c ****   }
 751:../Sources/system/CrystalClock.c **** 
 752:../Sources/system/CrystalClock.c **** // make sure HGO will never be greater than 1. Could return an error instead if desired.  
 753:../Sources/system/CrystalClock.c ****   if (hgo_val > 0)
 2781              		.loc 1 753 0
 2782 0078 FB1C     		add	r3, r7, #3
 2783 007a 1B78     		ldrb	r3, [r3]
 2784 007c 002B     		cmp	r3, #0
 2785 007e 02D0     		beq	.L213
 754:../Sources/system/CrystalClock.c ****   {
 755:../Sources/system/CrystalClock.c ****     hgo_val = 1; // force hgo_val to 1 if > 0
 2786              		.loc 1 755 0
 2787 0080 FB1C     		add	r3, r7, #3
 2788 0082 0122     		mov	r2, #1
 2789 0084 1A70     		strb	r2, [r3]
 2790              	.L213:
 756:../Sources/system/CrystalClock.c ****   }
 757:../Sources/system/CrystalClock.c **** 
 758:../Sources/system/CrystalClock.c **** // configure the MCG_C2 register
 759:../Sources/system/CrystalClock.c **** // the RANGE value is determined by the external frequency. Since the RANGE parameter affects the F
 760:../Sources/system/CrystalClock.c **** // it still needs to be set correctly even if the oscillator is not being used
 761:../Sources/system/CrystalClock.c ****   temp_reg = MCG_C2;
 2791              		.loc 1 761 0
 2792 0086 974A     		ldr	r2, .L241
 2793 0088 3B1C     		mov	r3, r7
 2794 008a 0E33     		add	r3, r3, #14
 2795 008c 5278     		ldrb	r2, [r2, #1]
 2796 008e 1A70     		strb	r2, [r3]
 762:../Sources/system/CrystalClock.c ****   temp_reg &= ~(MCG_C2_RANGE0_MASK | MCG_C2_HGO0_MASK | MCG_C2_EREFS0_MASK); // clear fields before
 2797              		.loc 1 762 0
 2798 0090 3B1C     		mov	r3, r7
 2799 0092 0E33     		add	r3, r3, #14
 2800 0094 3A1C     		mov	r2, r7
 2801 0096 0E32     		add	r2, r2, #14
 2802 0098 1278     		ldrb	r2, [r2]
 2803 009a 3C21     		mov	r1, #60
 2804 009c 8A43     		bic	r2, r1
 2805 009e 1A70     		strb	r2, [r3]
 763:../Sources/system/CrystalClock.c ****   if (crystal_val <= 40000)
 2806              		.loc 1 763 0
 2807 00a0 7A68     		ldr	r2, [r7, #4]
 2808 00a2 934B     		ldr	r3, .L241+12
 2809 00a4 9A42     		cmp	r2, r3
 2810 00a6 11DC     		bgt	.L214
 764:../Sources/system/CrystalClock.c ****   {
 765:../Sources/system/CrystalClock.c ****     temp_reg |= (MCG_C2_RANGE0(0) | (hgo_val << MCG_C2_HGO0_SHIFT) | (erefs_val << MCG_C2_EREFS0_SH
 2811              		.loc 1 765 0
 2812 00a8 FB1C     		add	r3, r7, #3
 2813 00aa 1B78     		ldrb	r3, [r3]
 2814 00ac DB00     		lsl	r3, r3, #3
 2815 00ae DAB2     		uxtb	r2, r3
 2816 00b0 BB1C     		add	r3, r7, #2
 2817 00b2 1B78     		ldrb	r3, [r3]
 2818 00b4 9B00     		lsl	r3, r3, #2
 2819 00b6 DBB2     		uxtb	r3, r3
 2820 00b8 1343     		orr	r3, r2
 2821 00ba D9B2     		uxtb	r1, r3
 2822 00bc 3B1C     		mov	r3, r7
 2823 00be 0E33     		add	r3, r3, #14
 2824 00c0 3A1C     		mov	r2, r7
 2825 00c2 0E32     		add	r2, r2, #14
 2826 00c4 1278     		ldrb	r2, [r2]
 2827 00c6 0A43     		orr	r2, r1
 2828 00c8 1A70     		strb	r2, [r3]
 2829 00ca 2CE0     		b	.L215
 2830              	.L214:
 766:../Sources/system/CrystalClock.c ****   }
 767:../Sources/system/CrystalClock.c ****   else if (crystal_val <= 8000000)
 2831              		.loc 1 767 0
 2832 00cc 7A68     		ldr	r2, [r7, #4]
 2833 00ce 8B4B     		ldr	r3, .L241+24
 2834 00d0 9A42     		cmp	r2, r3
 2835 00d2 14DC     		bgt	.L216
 768:../Sources/system/CrystalClock.c ****   {
 769:../Sources/system/CrystalClock.c ****     temp_reg |= (MCG_C2_RANGE0(1) | (hgo_val << MCG_C2_HGO0_SHIFT) | (erefs_val << MCG_C2_EREFS0_SH
 2836              		.loc 1 769 0
 2837 00d4 FB1C     		add	r3, r7, #3
 2838 00d6 1B78     		ldrb	r3, [r3]
 2839 00d8 DB00     		lsl	r3, r3, #3
 2840 00da DAB2     		uxtb	r2, r3
 2841 00dc BB1C     		add	r3, r7, #2
 2842 00de 1B78     		ldrb	r3, [r3]
 2843 00e0 9B00     		lsl	r3, r3, #2
 2844 00e2 DBB2     		uxtb	r3, r3
 2845 00e4 1343     		orr	r3, r2
 2846 00e6 DAB2     		uxtb	r2, r3
 2847 00e8 3B1C     		mov	r3, r7
 2848 00ea 0E33     		add	r3, r3, #14
 2849 00ec 1B78     		ldrb	r3, [r3]
 2850 00ee 1343     		orr	r3, r2
 2851 00f0 DAB2     		uxtb	r2, r3
 2852 00f2 3B1C     		mov	r3, r7
 2853 00f4 0E33     		add	r3, r3, #14
 2854 00f6 1021     		mov	r1, #16
 2855 00f8 0A43     		orr	r2, r1
 2856 00fa 1A70     		strb	r2, [r3]
 2857 00fc 13E0     		b	.L215
 2858              	.L216:
 770:../Sources/system/CrystalClock.c ****   }
 771:../Sources/system/CrystalClock.c ****   else
 772:../Sources/system/CrystalClock.c ****   {
 773:../Sources/system/CrystalClock.c ****     temp_reg |= (MCG_C2_RANGE0(2) | (hgo_val << MCG_C2_HGO0_SHIFT) | (erefs_val << MCG_C2_EREFS0_SH
 2859              		.loc 1 773 0
 2860 00fe FB1C     		add	r3, r7, #3
 2861 0100 1B78     		ldrb	r3, [r3]
 2862 0102 DB00     		lsl	r3, r3, #3
 2863 0104 DAB2     		uxtb	r2, r3
 2864 0106 BB1C     		add	r3, r7, #2
 2865 0108 1B78     		ldrb	r3, [r3]
 2866 010a 9B00     		lsl	r3, r3, #2
 2867 010c DBB2     		uxtb	r3, r3
 2868 010e 1343     		orr	r3, r2
 2869 0110 DAB2     		uxtb	r2, r3
 2870 0112 3B1C     		mov	r3, r7
 2871 0114 0E33     		add	r3, r3, #14
 2872 0116 1B78     		ldrb	r3, [r3]
 2873 0118 1343     		orr	r3, r2
 2874 011a DAB2     		uxtb	r2, r3
 2875 011c 3B1C     		mov	r3, r7
 2876 011e 0E33     		add	r3, r3, #14
 2877 0120 2021     		mov	r1, #32
 2878 0122 0A43     		orr	r2, r1
 2879 0124 1A70     		strb	r2, [r3]
 2880              	.L215:
 774:../Sources/system/CrystalClock.c ****   }
 775:../Sources/system/CrystalClock.c ****   MCG_C2 = temp_reg;
 2881              		.loc 1 775 0
 2882 0126 6F4B     		ldr	r3, .L241
 2883 0128 3A1C     		mov	r2, r7
 2884 012a 0E32     		add	r2, r2, #14
 2885 012c 1278     		ldrb	r2, [r2]
 2886 012e 5A70     		strb	r2, [r3, #1]
 776:../Sources/system/CrystalClock.c **** // determine FRDIV based on reference clock frequency
 777:../Sources/system/CrystalClock.c **** // since the external frequency has already been checked only the maximum frequency for each FRDIV 
 778:../Sources/system/CrystalClock.c ****   if (crystal_val <= 1250000) {frdiv_val = 0;}
 2887              		.loc 1 778 0
 2888 0130 7A68     		ldr	r2, [r7, #4]
 2889 0132 734B     		ldr	r3, .L241+28
 2890 0134 9A42     		cmp	r2, r3
 2891 0136 04DC     		bgt	.L217
 2892              		.loc 1 778 0 is_stmt 0
 2893 0138 3B1C     		mov	r3, r7
 2894 013a 0F33     		add	r3, r3, #15
 2895 013c 0022     		mov	r2, #0
 2896 013e 1A70     		strb	r2, [r3]
 2897 0140 27E0     		b	.L218
 2898              	.L217:
 779:../Sources/system/CrystalClock.c ****   else if (crystal_val <= 2500000) {frdiv_val = 1;}
 2899              		.loc 1 779 0 is_stmt 1
 2900 0142 7A68     		ldr	r2, [r7, #4]
 2901 0144 6F4B     		ldr	r3, .L241+32
 2902 0146 9A42     		cmp	r2, r3
 2903 0148 04DC     		bgt	.L219
 2904              		.loc 1 779 0 is_stmt 0
 2905 014a 3B1C     		mov	r3, r7
 2906 014c 0F33     		add	r3, r3, #15
 2907 014e 0122     		mov	r2, #1
 2908 0150 1A70     		strb	r2, [r3]
 2909 0152 1EE0     		b	.L218
 2910              	.L219:
 780:../Sources/system/CrystalClock.c ****   else if (crystal_val <= 5000000) {frdiv_val = 2;}
 2911              		.loc 1 780 0 is_stmt 1
 2912 0154 7A68     		ldr	r2, [r7, #4]
 2913 0156 6C4B     		ldr	r3, .L241+36
 2914 0158 9A42     		cmp	r2, r3
 2915 015a 04DC     		bgt	.L220
 2916              		.loc 1 780 0 is_stmt 0
 2917 015c 3B1C     		mov	r3, r7
 2918 015e 0F33     		add	r3, r3, #15
 2919 0160 0222     		mov	r2, #2
 2920 0162 1A70     		strb	r2, [r3]
 2921 0164 15E0     		b	.L218
 2922              	.L220:
 781:../Sources/system/CrystalClock.c ****   else if (crystal_val <= 10000000) {frdiv_val = 3;}
 2923              		.loc 1 781 0 is_stmt 1
 2924 0166 7A68     		ldr	r2, [r7, #4]
 2925 0168 684B     		ldr	r3, .L241+40
 2926 016a 9A42     		cmp	r2, r3
 2927 016c 04DC     		bgt	.L221
 2928              		.loc 1 781 0 is_stmt 0
 2929 016e 3B1C     		mov	r3, r7
 2930 0170 0F33     		add	r3, r3, #15
 2931 0172 0322     		mov	r2, #3
 2932 0174 1A70     		strb	r2, [r3]
 2933 0176 0CE0     		b	.L218
 2934              	.L221:
 782:../Sources/system/CrystalClock.c ****   else if (crystal_val <= 20000000) {frdiv_val = 4;}
 2935              		.loc 1 782 0 is_stmt 1
 2936 0178 7A68     		ldr	r2, [r7, #4]
 2937 017a 654B     		ldr	r3, .L241+44
 2938 017c 9A42     		cmp	r2, r3
 2939 017e 04DC     		bgt	.L222
 2940              		.loc 1 782 0 is_stmt 0
 2941 0180 3B1C     		mov	r3, r7
 2942 0182 0F33     		add	r3, r3, #15
 2943 0184 0422     		mov	r2, #4
 2944 0186 1A70     		strb	r2, [r3]
 2945 0188 03E0     		b	.L218
 2946              	.L222:
 783:../Sources/system/CrystalClock.c ****   else {frdiv_val = 5;}
 2947              		.loc 1 783 0 is_stmt 1
 2948 018a 3B1C     		mov	r3, r7
 2949 018c 0F33     		add	r3, r3, #15
 2950 018e 0522     		mov	r2, #5
 2951 0190 1A70     		strb	r2, [r3]
 2952              	.L218:
 784:../Sources/system/CrystalClock.c ****   
 785:../Sources/system/CrystalClock.c **** // Select external oscilator and Reference Divider and clear IREFS to start ext osc
 786:../Sources/system/CrystalClock.c **** // If IRCLK is required it must be enabled outside of this driver, existing state will be maintaine
 787:../Sources/system/CrystalClock.c **** // CLKS=2, FRDIV=frdiv_val, IREFS=0, IRCLKEN=0, IREFSTEN=0
 788:../Sources/system/CrystalClock.c ****   temp_reg = MCG_C1;
 2953              		.loc 1 788 0
 2954 0192 544A     		ldr	r2, .L241
 2955 0194 3B1C     		mov	r3, r7
 2956 0196 0E33     		add	r3, r3, #14
 2957 0198 1278     		ldrb	r2, [r2]
 2958 019a 1A70     		strb	r2, [r3]
 789:../Sources/system/CrystalClock.c ****   temp_reg &= ~(MCG_C1_CLKS_MASK | MCG_C1_FRDIV_MASK | MCG_C1_IREFS_MASK); // Clear values in these
 2959              		.loc 1 789 0
 2960 019c 3B1C     		mov	r3, r7
 2961 019e 0E33     		add	r3, r3, #14
 2962 01a0 3A1C     		mov	r2, r7
 2963 01a2 0E32     		add	r2, r2, #14
 2964 01a4 1178     		ldrb	r1, [r2]
 2965 01a6 0322     		mov	r2, #3
 2966 01a8 0A40     		and	r2, r1
 2967 01aa 1A70     		strb	r2, [r3]
 790:../Sources/system/CrystalClock.c ****   temp_reg |= (MCG_C1_CLKS(2) | MCG_C1_FRDIV(frdiv_val)); // Set the required CLKS and FRDIV values
 2968              		.loc 1 790 0
 2969 01ac 3B1C     		mov	r3, r7
 2970 01ae 0F33     		add	r3, r3, #15
 2971 01b0 1B78     		ldrb	r3, [r3]
 2972 01b2 DB00     		lsl	r3, r3, #3
 2973 01b4 DAB2     		uxtb	r2, r3
 2974 01b6 3823     		mov	r3, #56
 2975 01b8 1340     		and	r3, r2
 2976 01ba DAB2     		uxtb	r2, r3
 2977 01bc 3B1C     		mov	r3, r7
 2978 01be 0E33     		add	r3, r3, #14
 2979 01c0 1B78     		ldrb	r3, [r3]
 2980 01c2 1343     		orr	r3, r2
 2981 01c4 DAB2     		uxtb	r2, r3
 2982 01c6 3B1C     		mov	r3, r7
 2983 01c8 0E33     		add	r3, r3, #14
 2984 01ca 8021     		mov	r1, #128
 2985 01cc 4942     		neg	r1, r1
 2986 01ce 0A43     		orr	r2, r1
 2987 01d0 1A70     		strb	r2, [r3]
 791:../Sources/system/CrystalClock.c ****   MCG_C1 = temp_reg;
 2988              		.loc 1 791 0
 2989 01d2 444B     		ldr	r3, .L241
 2990 01d4 3A1C     		mov	r2, r7
 2991 01d6 0E32     		add	r2, r2, #14
 2992 01d8 1278     		ldrb	r2, [r2]
 2993 01da 1A70     		strb	r2, [r3]
 792:../Sources/system/CrystalClock.c **** 
 793:../Sources/system/CrystalClock.c **** // if the external oscillator is used need to wait for OSCINIT to set
 794:../Sources/system/CrystalClock.c ****   if (erefs_val)
 2994              		.loc 1 794 0
 2995 01dc BB1C     		add	r3, r7, #2
 2996 01de 1B78     		ldrb	r3, [r3]
 2997 01e0 002B     		cmp	r3, #0
 2998 01e2 24D0     		beq	.L223
 795:../Sources/system/CrystalClock.c ****   {
 796:../Sources/system/CrystalClock.c ****     for (i = 0 ; i < 10000 ; i++)
 2999              		.loc 1 796 0
 3000 01e4 3B1C     		mov	r3, r7
 3001 01e6 0C33     		add	r3, r3, #12
 3002 01e8 0022     		mov	r2, #0
 3003 01ea 1A80     		strh	r2, [r3]
 3004 01ec 0DE0     		b	.L224
 3005              	.L227:
 797:../Sources/system/CrystalClock.c ****     {
 798:../Sources/system/CrystalClock.c ****       if (MCG_S & MCG_S_OSCINIT0_MASK) break; // jump out early if OSCINIT sets before loop finishe
 3006              		.loc 1 798 0
 3007 01ee 3D4B     		ldr	r3, .L241
 3008 01f0 9B79     		ldrb	r3, [r3, #6]
 3009 01f2 DBB2     		uxtb	r3, r3
 3010 01f4 1A1C     		mov	r2, r3
 3011 01f6 0223     		mov	r3, #2
 3012 01f8 1340     		and	r3, r2
 3013 01fa 0ED1     		bne	.L238
 3014              	.L225:
 796:../Sources/system/CrystalClock.c ****     for (i = 0 ; i < 10000 ; i++)
 3015              		.loc 1 796 0
 3016 01fc 3B1C     		mov	r3, r7
 3017 01fe 0C33     		add	r3, r3, #12
 3018 0200 3A1C     		mov	r2, r7
 3019 0202 0C32     		add	r2, r2, #12
 3020 0204 1288     		ldrh	r2, [r2]
 3021 0206 0132     		add	r2, r2, #1
 3022 0208 1A80     		strh	r2, [r3]
 3023              	.L224:
 796:../Sources/system/CrystalClock.c ****     for (i = 0 ; i < 10000 ; i++)
 3024              		.loc 1 796 0 is_stmt 0
 3025 020a 3B1C     		mov	r3, r7
 3026 020c 0C33     		add	r3, r3, #12
 3027 020e 0021     		mov	r1, #0
 3028 0210 5A5E     		ldrsh	r2, [r3, r1]
 3029 0212 404B     		ldr	r3, .L241+48
 3030 0214 9A42     		cmp	r2, r3
 3031 0216 EADD     		ble	.L227
 3032 0218 00E0     		b	.L226
 3033              	.L238:
 3034              		.loc 1 798 0 is_stmt 1
 3035 021a C046     		mov	r8, r8
 3036              	.L226:
 799:../Sources/system/CrystalClock.c ****     }
 800:../Sources/system/CrystalClock.c ****     if (!(MCG_S & MCG_S_OSCINIT0_MASK)) return 0x23; // check bit is really set and return with err
 3037              		.loc 1 800 0
 3038 021c 314B     		ldr	r3, .L241
 3039 021e 9B79     		ldrb	r3, [r3, #6]
 3040 0220 DBB2     		uxtb	r3, r3
 3041 0222 1A1C     		mov	r2, r3
 3042 0224 0223     		mov	r3, #2
 3043 0226 1340     		and	r3, r2
 3044 0228 01D1     		bne	.L223
 3045              		.loc 1 800 0 is_stmt 0
 3046 022a 2323     		mov	r3, #35
 3047 022c 56E0     		b	.L208
 3048              	.L223:
 801:../Sources/system/CrystalClock.c ****   }
 802:../Sources/system/CrystalClock.c **** 
 803:../Sources/system/CrystalClock.c **** // wait for Reference clock Status bit to clear
 804:../Sources/system/CrystalClock.c ****   for (i = 0 ; i < 2000 ; i++)
 3049              		.loc 1 804 0 is_stmt 1
 3050 022e 3B1C     		mov	r3, r7
 3051 0230 0C33     		add	r3, r3, #12
 3052 0232 0022     		mov	r2, #0
 3053 0234 1A80     		strh	r2, [r3]
 3054 0236 0DE0     		b	.L228
 3055              	.L231:
 805:../Sources/system/CrystalClock.c ****   {
 806:../Sources/system/CrystalClock.c ****     if (!(MCG_S & MCG_S_IREFST_MASK)) break; // jump out early if IREFST clears before loop finishe
 3056              		.loc 1 806 0
 3057 0238 2A4B     		ldr	r3, .L241
 3058 023a 9B79     		ldrb	r3, [r3, #6]
 3059 023c DBB2     		uxtb	r3, r3
 3060 023e 1A1C     		mov	r2, r3
 3061 0240 1023     		mov	r3, #16
 3062 0242 1340     		and	r3, r2
 3063 0244 0ED0     		beq	.L239
 3064              	.L229:
 804:../Sources/system/CrystalClock.c ****   for (i = 0 ; i < 2000 ; i++)
 3065              		.loc 1 804 0
 3066 0246 3B1C     		mov	r3, r7
 3067 0248 0C33     		add	r3, r3, #12
 3068 024a 3A1C     		mov	r2, r7
 3069 024c 0C32     		add	r2, r2, #12
 3070 024e 1288     		ldrh	r2, [r2]
 3071 0250 0132     		add	r2, r2, #1
 3072 0252 1A80     		strh	r2, [r3]
 3073              	.L228:
 804:../Sources/system/CrystalClock.c ****   for (i = 0 ; i < 2000 ; i++)
 3074              		.loc 1 804 0 is_stmt 0
 3075 0254 3B1C     		mov	r3, r7
 3076 0256 0C33     		add	r3, r3, #12
 3077 0258 0021     		mov	r1, #0
 3078 025a 5A5E     		ldrsh	r2, [r3, r1]
 3079 025c 2E4B     		ldr	r3, .L241+52
 3080 025e 9A42     		cmp	r2, r3
 3081 0260 EADD     		ble	.L231
 3082 0262 00E0     		b	.L230
 3083              	.L239:
 3084              		.loc 1 806 0 is_stmt 1
 3085 0264 C046     		mov	r8, r8
 3086              	.L230:
 807:../Sources/system/CrystalClock.c ****   }
 808:../Sources/system/CrystalClock.c ****   if (MCG_S & MCG_S_IREFST_MASK) return 0x11; // check bit is really clear and return with error if
 3087              		.loc 1 808 0
 3088 0266 1F4B     		ldr	r3, .L241
 3089 0268 9B79     		ldrb	r3, [r3, #6]
 3090 026a DBB2     		uxtb	r3, r3
 3091 026c 1A1C     		mov	r2, r3
 3092 026e 1023     		mov	r3, #16
 3093 0270 1340     		and	r3, r2
 3094 0272 01D0     		beq	.L232
 3095              		.loc 1 808 0 is_stmt 0
 3096 0274 1123     		mov	r3, #17
 3097 0276 31E0     		b	.L208
 3098              	.L232:
 809:../Sources/system/CrystalClock.c ****   
 810:../Sources/system/CrystalClock.c **** // Wait for clock status bits to show clock source is ext ref clk
 811:../Sources/system/CrystalClock.c ****   for (i = 0 ; i < 2000 ; i++)
 3099              		.loc 1 811 0 is_stmt 1
 3100 0278 3B1C     		mov	r3, r7
 3101 027a 0C33     		add	r3, r3, #12
 3102 027c 0022     		mov	r2, #0
 3103 027e 1A80     		strh	r2, [r3]
 3104 0280 0FE0     		b	.L233
 3105              	.L236:
 812:../Sources/system/CrystalClock.c ****   {
 813:../Sources/system/CrystalClock.c ****     if (((MCG_S & MCG_S_CLKST_MASK) >> MCG_S_CLKST_SHIFT) == 0x2) break; // jump out early if CLKST
 3106              		.loc 1 813 0
 3107 0282 184B     		ldr	r3, .L241
 3108 0284 9B79     		ldrb	r3, [r3, #6]
 3109 0286 DBB2     		uxtb	r3, r3
 3110 0288 1A1C     		mov	r2, r3
 3111 028a 0C23     		mov	r3, #12
 3112 028c 1340     		and	r3, r2
 3113 028e 9B08     		lsr	r3, r3, #2
 3114 0290 022B     		cmp	r3, #2
 3115 0292 0ED0     		beq	.L240
 3116              	.L234:
 811:../Sources/system/CrystalClock.c ****   for (i = 0 ; i < 2000 ; i++)
 3117              		.loc 1 811 0
 3118 0294 3B1C     		mov	r3, r7
 3119 0296 0C33     		add	r3, r3, #12
 3120 0298 3A1C     		mov	r2, r7
 3121 029a 0C32     		add	r2, r2, #12
 3122 029c 1288     		ldrh	r2, [r2]
 3123 029e 0132     		add	r2, r2, #1
 3124 02a0 1A80     		strh	r2, [r3]
 3125              	.L233:
 811:../Sources/system/CrystalClock.c ****   for (i = 0 ; i < 2000 ; i++)
 3126              		.loc 1 811 0 is_stmt 0
 3127 02a2 3B1C     		mov	r3, r7
 3128 02a4 0C33     		add	r3, r3, #12
 3129 02a6 0021     		mov	r1, #0
 3130 02a8 5A5E     		ldrsh	r2, [r3, r1]
 3131 02aa 1B4B     		ldr	r3, .L241+52
 3132 02ac 9A42     		cmp	r2, r3
 3133 02ae E8DD     		ble	.L236
 3134 02b0 00E0     		b	.L235
 3135              	.L240:
 3136              		.loc 1 813 0 is_stmt 1
 3137 02b2 C046     		mov	r8, r8
 3138              	.L235:
 814:../Sources/system/CrystalClock.c ****   }
 815:../Sources/system/CrystalClock.c ****   if (((MCG_S & MCG_S_CLKST_MASK) >> MCG_S_CLKST_SHIFT) != 0x2) return 0x1A; // check EXT CLK is re
 3139              		.loc 1 815 0
 3140 02b4 0B4B     		ldr	r3, .L241
 3141 02b6 9B79     		ldrb	r3, [r3, #6]
 3142 02b8 DBB2     		uxtb	r3, r3
 3143 02ba 1A1C     		mov	r2, r3
 3144 02bc 0C23     		mov	r3, #12
 3145 02be 1340     		and	r3, r2
 3146 02c0 9B08     		lsr	r3, r3, #2
 3147 02c2 022B     		cmp	r3, #2
 3148 02c4 01D0     		beq	.L237
 3149              		.loc 1 815 0 is_stmt 0
 3150 02c6 1A23     		mov	r3, #26
 3151 02c8 08E0     		b	.L208
 3152              	.L237:
 816:../Sources/system/CrystalClock.c ****  
 817:../Sources/system/CrystalClock.c **** // Now in FBE  
 818:../Sources/system/CrystalClock.c **** // It is recommended that the clock monitor is enabled when using an external clock as the clock so
 819:../Sources/system/CrystalClock.c **** // It is enabled here but can be removed if this is not required.
 820:../Sources/system/CrystalClock.c ****   MCG_C6 |= MCG_C6_CME0_MASK;
 3153              		.loc 1 820 0 is_stmt 1
 3154 02ca 064B     		ldr	r3, .L241
 3155 02cc 054A     		ldr	r2, .L241
 3156 02ce 5279     		ldrb	r2, [r2, #5]
 3157 02d0 D2B2     		uxtb	r2, r2
 3158 02d2 2021     		mov	r1, #32
 3159 02d4 0A43     		orr	r2, r1
 3160 02d6 D2B2     		uxtb	r2, r2
 3161 02d8 5A71     		strb	r2, [r3, #5]
 821:../Sources/system/CrystalClock.c ****   
 822:../Sources/system/CrystalClock.c ****   return crystal_val; // MCGOUT frequency equals external clock frequency
 3162              		.loc 1 822 0
 3163 02da 7B68     		ldr	r3, [r7, #4]
 3164              	.L208:
 823:../Sources/system/CrystalClock.c **** } // fei_fbe
 3165              		.loc 1 823 0
 3166 02dc 181C     		mov	r0, r3
 3167 02de BD46     		mov	sp, r7
 3168 02e0 04B0     		add	sp, sp, #16
 3169              		@ sp needed for prologue
 3170 02e2 80BD     		pop	{r7, pc}
 3171              	.L242:
 3172              		.align	2
 3173              	.L241:
 3174 02e4 00400640 		.word	1074151424
 3175 02e8 80F0FA02 		.word	50000000
 3176 02ec 2F750000 		.word	29999
 3177 02f0 409C0000 		.word	40000
 3178 02f4 BFC62D00 		.word	2999999
 3179 02f8 0048E801 		.word	32000000
 3180 02fc 00127A00 		.word	8000000
 3181 0300 D0121300 		.word	1250000
 3182 0304 A0252600 		.word	2500000
 3183 0308 404B4C00 		.word	5000000
 3184 030c 80969800 		.word	10000000
 3185 0310 002D3101 		.word	20000000
 3186 0314 0F270000 		.word	9999
 3187 0318 CF070000 		.word	1999
 3188              		.cfi_endproc
 3189              	.LFE11:
 3191              		.section	.text.fbe_fee,"ax",%progbits
 3192              		.align	2
 3193              		.global	fbe_fee
 3194              		.code	16
 3195              		.thumb_func
 3197              	fbe_fee:
 3198              	.LFB12:
 824:../Sources/system/CrystalClock.c **** 
 825:../Sources/system/CrystalClock.c **** 
 826:../Sources/system/CrystalClock.c **** int fbe_fee(int crystal_val)
 827:../Sources/system/CrystalClock.c **** {
 3199              		.loc 1 827 0
 3200              		.cfi_startproc
 3201 0000 80B5     		push	{r7, lr}
 3202              	.LCFI36:
 3203              		.cfi_def_cfa_offset 8
 3204              		.cfi_offset 7, -8
 3205              		.cfi_offset 14, -4
 3206 0002 84B0     		sub	sp, sp, #16
 3207              	.LCFI37:
 3208              		.cfi_def_cfa_offset 24
 3209 0004 00AF     		add	r7, sp, #0
 3210              	.LCFI38:
 3211              		.cfi_def_cfa_register 7
 3212 0006 7860     		str	r0, [r7, #4]
 828:../Sources/system/CrystalClock.c ****   short i, fll_ref_freq;
 829:../Sources/system/CrystalClock.c ****   int mcg_out;
 830:../Sources/system/CrystalClock.c **** 
 831:../Sources/system/CrystalClock.c **** // Check MCG is in FBE mode
 832:../Sources/system/CrystalClock.c ****   if (!((((MCG_S & MCG_S_CLKST_MASK) >> MCG_S_CLKST_SHIFT) == 0x2) && // check CLKS mux has selcted
 3213              		.loc 1 832 0
 3214 0008 494B     		ldr	r3, .L256
 3215 000a 9B79     		ldrb	r3, [r3, #6]
 3216 000c DBB2     		uxtb	r3, r3
 3217 000e 1A1C     		mov	r2, r3
 3218 0010 0C23     		mov	r3, #12
 3219 0012 1340     		and	r3, r2
 3220 0014 9B08     		lsr	r3, r3, #2
 3221 0016 022B     		cmp	r3, #2
 3222 0018 14D1     		bne	.L244
 833:../Sources/system/CrystalClock.c ****       (!(MCG_S & MCG_S_IREFST_MASK)) &&                               // check FLL ref is external 
 3223              		.loc 1 833 0
 3224 001a 454B     		ldr	r3, .L256
 3225 001c 9B79     		ldrb	r3, [r3, #6]
 3226 001e DBB2     		uxtb	r3, r3
 3227 0020 1A1C     		mov	r2, r3
 3228 0022 1023     		mov	r3, #16
 3229 0024 1340     		and	r3, r2
 832:../Sources/system/CrystalClock.c ****   if (!((((MCG_S & MCG_S_CLKST_MASK) >> MCG_S_CLKST_SHIFT) == 0x2) && // check CLKS mux has selcted
 3230              		.loc 1 832 0
 3231 0026 0DD1     		bne	.L244
 834:../Sources/system/CrystalClock.c ****       (!(MCG_S & MCG_S_PLLST_MASK)) &&                                // check PLLS mux has selecte
 3232              		.loc 1 834 0
 3233 0028 414B     		ldr	r3, .L256
 3234 002a 9B79     		ldrb	r3, [r3, #6]
 3235 002c DBB2     		uxtb	r3, r3
 3236 002e 1A1C     		mov	r2, r3
 3237 0030 2023     		mov	r3, #32
 3238 0032 1340     		and	r3, r2
 833:../Sources/system/CrystalClock.c ****       (!(MCG_S & MCG_S_IREFST_MASK)) &&                               // check FLL ref is external 
 3239              		.loc 1 833 0
 3240 0034 06D1     		bne	.L244
 835:../Sources/system/CrystalClock.c ****       (!(MCG_C2 & MCG_C2_LP_MASK))))                                  // check MCG_C2[LP] bit is no
 3241              		.loc 1 835 0
 3242 0036 3E4B     		ldr	r3, .L256
 3243 0038 5B78     		ldrb	r3, [r3, #1]
 3244 003a DBB2     		uxtb	r3, r3
 3245 003c 1A1C     		mov	r2, r3
 3246 003e 0223     		mov	r3, #2
 3247 0040 1340     		and	r3, r2
 832:../Sources/system/CrystalClock.c ****   if (!((((MCG_S & MCG_S_CLKST_MASK) >> MCG_S_CLKST_SHIFT) == 0x2) && // check CLKS mux has selcted
 3248              		.loc 1 832 0
 3249 0042 01D0     		beq	.L245
 3250              	.L244:
 836:../Sources/system/CrystalClock.c ****   {
 837:../Sources/system/CrystalClock.c ****     return 0x4;                                                       // return error code
 3251              		.loc 1 837 0
 3252 0044 0423     		mov	r3, #4
 3253 0046 6EE0     		b	.L246
 3254              	.L245:
 838:../Sources/system/CrystalClock.c ****   }
 839:../Sources/system/CrystalClock.c ****   
 840:../Sources/system/CrystalClock.c ****   // The FLL ref clk divide value depends on FRDIV and the RANGE value
 841:../Sources/system/CrystalClock.c ****   if (((MCG_C2 & MCG_C2_RANGE0_MASK) >> MCG_C2_RANGE0_SHIFT) > 0)
 3255              		.loc 1 841 0
 3256 0048 394B     		ldr	r3, .L256
 3257 004a 5B78     		ldrb	r3, [r3, #1]
 3258 004c DBB2     		uxtb	r3, r3
 3259 004e 1A1C     		mov	r2, r3
 3260 0050 3023     		mov	r3, #48
 3261 0052 1340     		and	r3, r2
 3262 0054 1B09     		lsr	r3, r3, #4
 3263 0056 14D0     		beq	.L247
 842:../Sources/system/CrystalClock.c ****   {
 843:../Sources/system/CrystalClock.c ****     fll_ref_freq = (crystal_val / (32 << ((MCG_C1 & MCG_C1_FRDIV_MASK) >> MCG_C1_FRDIV_SHIFT)));
 3264              		.loc 1 843 0
 3265 0058 354B     		ldr	r3, .L256
 3266 005a 1B78     		ldrb	r3, [r3]
 3267 005c DBB2     		uxtb	r3, r3
 3268 005e 1A1C     		mov	r2, r3
 3269 0060 3823     		mov	r3, #56
 3270 0062 1340     		and	r3, r2
 3271 0064 DB08     		lsr	r3, r3, #3
 3272 0066 2022     		mov	r2, #32
 3273 0068 111C     		mov	r1, r2
 3274 006a 9940     		lsl	r1, r1, r3
 3275 006c 0B1C     		mov	r3, r1
 3276 006e 7868     		ldr	r0, [r7, #4]
 3277 0070 191C     		mov	r1, r3
 3278 0072 FFF7FEFF 		bl	__aeabi_idiv
 3279 0076 031C     		mov	r3, r0
 3280 0078 1A1C     		mov	r2, r3
 3281 007a 3B1C     		mov	r3, r7
 3282 007c 0C33     		add	r3, r3, #12
 3283 007e 1A80     		strh	r2, [r3]
 3284 0080 13E0     		b	.L248
 3285              	.L247:
 844:../Sources/system/CrystalClock.c ****   }
 845:../Sources/system/CrystalClock.c ****   else
 846:../Sources/system/CrystalClock.c ****   {
 847:../Sources/system/CrystalClock.c ****     fll_ref_freq = ((crystal_val) / (1 << (((MCG_C2 & MCG_C2_RANGE0_MASK) >> MCG_C2_RANGE0_SHIFT)))
 3286              		.loc 1 847 0
 3287 0082 2B4B     		ldr	r3, .L256
 3288 0084 5B78     		ldrb	r3, [r3, #1]
 3289 0086 DBB2     		uxtb	r3, r3
 3290 0088 1A1C     		mov	r2, r3
 3291 008a 3023     		mov	r3, #48
 3292 008c 1340     		and	r3, r2
 3293 008e 1B09     		lsr	r3, r3, #4
 3294 0090 0122     		mov	r2, #1
 3295 0092 111C     		mov	r1, r2
 3296 0094 9940     		lsl	r1, r1, r3
 3297 0096 0B1C     		mov	r3, r1
 3298 0098 7868     		ldr	r0, [r7, #4]
 3299 009a 191C     		mov	r1, r3
 3300 009c FFF7FEFF 		bl	__aeabi_idiv
 3301 00a0 031C     		mov	r3, r0
 3302 00a2 1A1C     		mov	r2, r3
 3303 00a4 3B1C     		mov	r3, r7
 3304 00a6 0C33     		add	r3, r3, #12
 3305 00a8 1A80     		strh	r2, [r3]
 3306              	.L248:
 848:../Sources/system/CrystalClock.c ****   }
 849:../Sources/system/CrystalClock.c ****   
 850:../Sources/system/CrystalClock.c **** // Check resulting FLL frequency 
 851:../Sources/system/CrystalClock.c ****   mcg_out = fll_freq(fll_ref_freq); // FLL reference frequency calculated from ext ref freq and FRD
 3307              		.loc 1 851 0
 3308 00aa 3B1C     		mov	r3, r7
 3309 00ac 0C33     		add	r3, r3, #12
 3310 00ae 0022     		mov	r2, #0
 3311 00b0 9B5E     		ldrsh	r3, [r3, r2]
 3312 00b2 181C     		mov	r0, r3
 3313 00b4 FFF7FEFF 		bl	fll_freq
 3314 00b8 031C     		mov	r3, r0
 3315 00ba BB60     		str	r3, [r7, #8]
 852:../Sources/system/CrystalClock.c ****   if (mcg_out < 0x3C) {return mcg_out;} // If error code returned, return the code to calling funct
 3316              		.loc 1 852 0
 3317 00bc BB68     		ldr	r3, [r7, #8]
 3318 00be 3B2B     		cmp	r3, #59
 3319 00c0 01DC     		bgt	.L249
 3320              		.loc 1 852 0 is_stmt 0
 3321 00c2 BB68     		ldr	r3, [r7, #8]
 3322 00c4 2FE0     		b	.L246
 3323              	.L249:
 853:../Sources/system/CrystalClock.c ****   
 854:../Sources/system/CrystalClock.c **** // Clear CLKS field to switch CLKS mux to select FLL output
 855:../Sources/system/CrystalClock.c ****   MCG_C1 &= ~MCG_C1_CLKS_MASK; // clear CLKS to select FLL output
 3324              		.loc 1 855 0 is_stmt 1
 3325 00c6 1A4B     		ldr	r3, .L256
 3326 00c8 194A     		ldr	r2, .L256
 3327 00ca 1278     		ldrb	r2, [r2]
 3328 00cc D1B2     		uxtb	r1, r2
 3329 00ce 3F22     		mov	r2, #63
 3330 00d0 0A40     		and	r2, r1
 3331 00d2 D2B2     		uxtb	r2, r2
 3332 00d4 1A70     		strb	r2, [r3]
 856:../Sources/system/CrystalClock.c **** 
 857:../Sources/system/CrystalClock.c **** // Wait for clock status bits to show clock source is FLL
 858:../Sources/system/CrystalClock.c ****   for (i = 0 ; i < 2000 ; i++)
 3333              		.loc 1 858 0
 3334 00d6 3B1C     		mov	r3, r7
 3335 00d8 0E33     		add	r3, r3, #14
 3336 00da 0022     		mov	r2, #0
 3337 00dc 1A80     		strh	r2, [r3]
 3338 00de 0EE0     		b	.L250
 3339              	.L253:
 859:../Sources/system/CrystalClock.c ****   {
 860:../Sources/system/CrystalClock.c ****     if (((MCG_S & MCG_S_CLKST_MASK) >> MCG_S_CLKST_SHIFT) == 0x0) break; // jump out early if CLKST
 3340              		.loc 1 860 0
 3341 00e0 134B     		ldr	r3, .L256
 3342 00e2 9B79     		ldrb	r3, [r3, #6]
 3343 00e4 DBB2     		uxtb	r3, r3
 3344 00e6 1A1C     		mov	r2, r3
 3345 00e8 0C23     		mov	r3, #12
 3346 00ea 1340     		and	r3, r2
 3347 00ec 9B08     		lsr	r3, r3, #2
 3348 00ee 0ED0     		beq	.L255
 3349              	.L251:
 858:../Sources/system/CrystalClock.c ****   for (i = 0 ; i < 2000 ; i++)
 3350              		.loc 1 858 0
 3351 00f0 3B1C     		mov	r3, r7
 3352 00f2 0E33     		add	r3, r3, #14
 3353 00f4 3A1C     		mov	r2, r7
 3354 00f6 0E32     		add	r2, r2, #14
 3355 00f8 1288     		ldrh	r2, [r2]
 3356 00fa 0132     		add	r2, r2, #1
 3357 00fc 1A80     		strh	r2, [r3]
 3358              	.L250:
 858:../Sources/system/CrystalClock.c ****   for (i = 0 ; i < 2000 ; i++)
 3359              		.loc 1 858 0 is_stmt 0
 3360 00fe 3B1C     		mov	r3, r7
 3361 0100 0E33     		add	r3, r3, #14
 3362 0102 0021     		mov	r1, #0
 3363 0104 5A5E     		ldrsh	r2, [r3, r1]
 3364 0106 0B4B     		ldr	r3, .L256+4
 3365 0108 9A42     		cmp	r2, r3
 3366 010a E9DD     		ble	.L253
 3367 010c 00E0     		b	.L252
 3368              	.L255:
 3369              		.loc 1 860 0 is_stmt 1
 3370 010e C046     		mov	r8, r8
 3371              	.L252:
 861:../Sources/system/CrystalClock.c ****   }
 862:../Sources/system/CrystalClock.c ****   if (((MCG_S & MCG_S_CLKST_MASK) >> MCG_S_CLKST_SHIFT) != 0x0) return 0x18; // check FLL is really
 3372              		.loc 1 862 0
 3373 0110 074B     		ldr	r3, .L256
 3374 0112 9B79     		ldrb	r3, [r3, #6]
 3375 0114 DBB2     		uxtb	r3, r3
 3376 0116 1A1C     		mov	r2, r3
 3377 0118 0C23     		mov	r3, #12
 3378 011a 1340     		and	r3, r2
 3379 011c 9B08     		lsr	r3, r3, #2
 3380 011e 01D0     		beq	.L254
 3381              		.loc 1 862 0 is_stmt 0
 3382 0120 1823     		mov	r3, #24
 3383 0122 00E0     		b	.L246
 3384              	.L254:
 863:../Sources/system/CrystalClock.c ****   
 864:../Sources/system/CrystalClock.c **** // Now in FEE mode
 865:../Sources/system/CrystalClock.c ****   return mcg_out;
 3385              		.loc 1 865 0 is_stmt 1
 3386 0124 BB68     		ldr	r3, [r7, #8]
 3387              	.L246:
 866:../Sources/system/CrystalClock.c **** } // fbe_fee
 3388              		.loc 1 866 0
 3389 0126 181C     		mov	r0, r3
 3390 0128 BD46     		mov	sp, r7
 3391 012a 04B0     		add	sp, sp, #16
 3392              		@ sp needed for prologue
 3393 012c 80BD     		pop	{r7, pc}
 3394              	.L257:
 3395 012e C046     		.align	2
 3396              	.L256:
 3397 0130 00400640 		.word	1074151424
 3398 0134 CF070000 		.word	1999
 3399              		.cfi_endproc
 3400              	.LFE12:
 3402              		.section	.text.fee_fbe,"ax",%progbits
 3403              		.align	2
 3404              		.global	fee_fbe
 3405              		.code	16
 3406              		.thumb_func
 3408              	fee_fbe:
 3409              	.LFB13:
 867:../Sources/system/CrystalClock.c **** 
 868:../Sources/system/CrystalClock.c **** 
 869:../Sources/system/CrystalClock.c **** int fee_fbe(int crystal_val)
 870:../Sources/system/CrystalClock.c **** { 
 3410              		.loc 1 870 0
 3411              		.cfi_startproc
 3412 0000 80B5     		push	{r7, lr}
 3413              	.LCFI39:
 3414              		.cfi_def_cfa_offset 8
 3415              		.cfi_offset 7, -8
 3416              		.cfi_offset 14, -4
 3417 0002 84B0     		sub	sp, sp, #16
 3418              	.LCFI40:
 3419              		.cfi_def_cfa_offset 24
 3420 0004 00AF     		add	r7, sp, #0
 3421              	.LCFI41:
 3422              		.cfi_def_cfa_register 7
 3423 0006 7860     		str	r0, [r7, #4]
 871:../Sources/system/CrystalClock.c ****   short i;
 872:../Sources/system/CrystalClock.c ****   
 873:../Sources/system/CrystalClock.c **** // Check MCG is in FEE mode
 874:../Sources/system/CrystalClock.c ****   if (!((((MCG_S & MCG_S_CLKST_MASK) >> MCG_S_CLKST_SHIFT) == 0x0) && // check CLKS mux has selcted
 3424              		.loc 1 874 0
 3425 0008 274B     		ldr	r3, .L268
 3426 000a 9B79     		ldrb	r3, [r3, #6]
 3427 000c DBB2     		uxtb	r3, r3
 3428 000e 1A1C     		mov	r2, r3
 3429 0010 0C23     		mov	r3, #12
 3430 0012 1340     		and	r3, r2
 3431 0014 9B08     		lsr	r3, r3, #2
 3432 0016 0DD1     		bne	.L259
 875:../Sources/system/CrystalClock.c ****       (!(MCG_S & MCG_S_IREFST_MASK)) &&                               // check FLL ref is external 
 3433              		.loc 1 875 0
 3434 0018 234B     		ldr	r3, .L268
 3435 001a 9B79     		ldrb	r3, [r3, #6]
 3436 001c DBB2     		uxtb	r3, r3
 3437 001e 1A1C     		mov	r2, r3
 3438 0020 1023     		mov	r3, #16
 3439 0022 1340     		and	r3, r2
 874:../Sources/system/CrystalClock.c ****   if (!((((MCG_S & MCG_S_CLKST_MASK) >> MCG_S_CLKST_SHIFT) == 0x0) && // check CLKS mux has selcted
 3440              		.loc 1 874 0
 3441 0024 06D1     		bne	.L259
 876:../Sources/system/CrystalClock.c ****       (!(MCG_S & MCG_S_PLLST_MASK))))                                 // check PLLS mux has selecte
 3442              		.loc 1 876 0
 3443 0026 204B     		ldr	r3, .L268
 3444 0028 9B79     		ldrb	r3, [r3, #6]
 3445 002a DBB2     		uxtb	r3, r3
 3446 002c 1A1C     		mov	r2, r3
 3447 002e 2023     		mov	r3, #32
 3448 0030 1340     		and	r3, r2
 874:../Sources/system/CrystalClock.c ****   if (!((((MCG_S & MCG_S_CLKST_MASK) >> MCG_S_CLKST_SHIFT) == 0x0) && // check CLKS mux has selcted
 3449              		.loc 1 874 0
 3450 0032 01D0     		beq	.L260
 3451              	.L259:
 877:../Sources/system/CrystalClock.c ****   {
 878:../Sources/system/CrystalClock.c ****     return 0x2;                                                       // return error code
 3452              		.loc 1 878 0
 3453 0034 0223     		mov	r3, #2
 3454 0036 32E0     		b	.L261
 3455              	.L260:
 879:../Sources/system/CrystalClock.c ****   }
 880:../Sources/system/CrystalClock.c ****   
 881:../Sources/system/CrystalClock.c **** // Set CLKS field to 2 to switch CLKS mux to select ext ref clock
 882:../Sources/system/CrystalClock.c **** // MCG is current in FEE mode so CLKS field = 0 so can just OR in new value
 883:../Sources/system/CrystalClock.c ****   MCG_C1 |= MCG_C1_CLKS(2); // set CLKS to select ext ref clock
 3456              		.loc 1 883 0
 3457 0038 1B4B     		ldr	r3, .L268
 3458 003a 1B4A     		ldr	r2, .L268
 3459 003c 1278     		ldrb	r2, [r2]
 3460 003e D2B2     		uxtb	r2, r2
 3461 0040 8021     		mov	r1, #128
 3462 0042 4942     		neg	r1, r1
 3463 0044 0A43     		orr	r2, r1
 3464 0046 D2B2     		uxtb	r2, r2
 3465 0048 1A70     		strb	r2, [r3]
 884:../Sources/system/CrystalClock.c **** 
 885:../Sources/system/CrystalClock.c **** /// Wait for clock status bits to show clock source is ext ref clk
 886:../Sources/system/CrystalClock.c ****   for (i = 0 ; i < 2000 ; i++)
 3466              		.loc 1 886 0
 3467 004a 3B1C     		mov	r3, r7
 3468 004c 0E33     		add	r3, r3, #14
 3469 004e 0022     		mov	r2, #0
 3470 0050 1A80     		strh	r2, [r3]
 3471 0052 0FE0     		b	.L262
 3472              	.L265:
 887:../Sources/system/CrystalClock.c ****   {
 888:../Sources/system/CrystalClock.c ****     if (((MCG_S & MCG_S_CLKST_MASK) >> MCG_S_CLKST_SHIFT) == 0x2) break; // jump out early if CLKST
 3473              		.loc 1 888 0
 3474 0054 144B     		ldr	r3, .L268
 3475 0056 9B79     		ldrb	r3, [r3, #6]
 3476 0058 DBB2     		uxtb	r3, r3
 3477 005a 1A1C     		mov	r2, r3
 3478 005c 0C23     		mov	r3, #12
 3479 005e 1340     		and	r3, r2
 3480 0060 9B08     		lsr	r3, r3, #2
 3481 0062 022B     		cmp	r3, #2
 3482 0064 0ED0     		beq	.L267
 3483              	.L263:
 886:../Sources/system/CrystalClock.c ****   for (i = 0 ; i < 2000 ; i++)
 3484              		.loc 1 886 0
 3485 0066 3B1C     		mov	r3, r7
 3486 0068 0E33     		add	r3, r3, #14
 3487 006a 3A1C     		mov	r2, r7
 3488 006c 0E32     		add	r2, r2, #14
 3489 006e 1288     		ldrh	r2, [r2]
 3490 0070 0132     		add	r2, r2, #1
 3491 0072 1A80     		strh	r2, [r3]
 3492              	.L262:
 886:../Sources/system/CrystalClock.c ****   for (i = 0 ; i < 2000 ; i++)
 3493              		.loc 1 886 0 is_stmt 0
 3494 0074 3B1C     		mov	r3, r7
 3495 0076 0E33     		add	r3, r3, #14
 3496 0078 0021     		mov	r1, #0
 3497 007a 5A5E     		ldrsh	r2, [r3, r1]
 3498 007c 0B4B     		ldr	r3, .L268+4
 3499 007e 9A42     		cmp	r2, r3
 3500 0080 E8DD     		ble	.L265
 3501 0082 00E0     		b	.L264
 3502              	.L267:
 3503              		.loc 1 888 0 is_stmt 1
 3504 0084 C046     		mov	r8, r8
 3505              	.L264:
 889:../Sources/system/CrystalClock.c ****   }
 890:../Sources/system/CrystalClock.c ****   if (((MCG_S & MCG_S_CLKST_MASK) >> MCG_S_CLKST_SHIFT) != 0x2) return 0x1A; // check EXT CLK is re
 3506              		.loc 1 890 0
 3507 0086 084B     		ldr	r3, .L268
 3508 0088 9B79     		ldrb	r3, [r3, #6]
 3509 008a DBB2     		uxtb	r3, r3
 3510 008c 1A1C     		mov	r2, r3
 3511 008e 0C23     		mov	r3, #12
 3512 0090 1340     		and	r3, r2
 3513 0092 9B08     		lsr	r3, r3, #2
 3514 0094 022B     		cmp	r3, #2
 3515 0096 01D0     		beq	.L266
 3516              		.loc 1 890 0 is_stmt 0
 3517 0098 1A23     		mov	r3, #26
 3518 009a 00E0     		b	.L261
 3519              	.L266:
 891:../Sources/system/CrystalClock.c ****   
 892:../Sources/system/CrystalClock.c **** // Now in FBE mode
 893:../Sources/system/CrystalClock.c ****   return crystal_val;
 3520              		.loc 1 893 0 is_stmt 1
 3521 009c 7B68     		ldr	r3, [r7, #4]
 3522              	.L261:
 894:../Sources/system/CrystalClock.c **** } // fee_fbe
 3523              		.loc 1 894 0
 3524 009e 181C     		mov	r0, r3
 3525 00a0 BD46     		mov	sp, r7
 3526 00a2 04B0     		add	sp, sp, #16
 3527              		@ sp needed for prologue
 3528 00a4 80BD     		pop	{r7, pc}
 3529              	.L269:
 3530 00a6 C046     		.align	2
 3531              	.L268:
 3532 00a8 00400640 		.word	1074151424
 3533 00ac CF070000 		.word	1999
 3534              		.cfi_endproc
 3535              	.LFE13:
 3537              		.section	.text.fbe_fbi,"ax",%progbits
 3538              		.align	2
 3539              		.global	fbe_fbi
 3540              		.code	16
 3541              		.thumb_func
 3543              	fbe_fbi:
 3544              	.LFB14:
 895:../Sources/system/CrystalClock.c **** 
 896:../Sources/system/CrystalClock.c **** 
 897:../Sources/system/CrystalClock.c **** int fbe_fbi(int irc_freq, unsigned char irc_select)
 898:../Sources/system/CrystalClock.c **** {
 3545              		.loc 1 898 0
 3546              		.cfi_startproc
 3547 0000 80B5     		push	{r7, lr}
 3548              	.LCFI42:
 3549              		.cfi_def_cfa_offset 8
 3550              		.cfi_offset 7, -8
 3551              		.cfi_offset 14, -4
 3552 0002 84B0     		sub	sp, sp, #16
 3553              	.LCFI43:
 3554              		.cfi_def_cfa_offset 24
 3555 0004 00AF     		add	r7, sp, #0
 3556              	.LCFI44:
 3557              		.cfi_def_cfa_register 7
 3558 0006 7860     		str	r0, [r7, #4]
 3559 0008 0A1C     		mov	r2, r1
 3560 000a FB1C     		add	r3, r7, #3
 3561 000c 1A70     		strb	r2, [r3]
 899:../Sources/system/CrystalClock.c ****   unsigned char temp_reg;
 900:../Sources/system/CrystalClock.c ****   unsigned char fcrdiv_val;
 901:../Sources/system/CrystalClock.c ****   short i;
 902:../Sources/system/CrystalClock.c ****   
 903:../Sources/system/CrystalClock.c **** // Check MCG is in FBE mode
 904:../Sources/system/CrystalClock.c ****   if (!((((MCG_S & MCG_S_CLKST_MASK) >> MCG_S_CLKST_SHIFT) == 0x2) && // check CLKS mux has selcted
 3562              		.loc 1 904 0
 3563 000e 944B     		ldr	r3, .L305
 3564 0010 9B79     		ldrb	r3, [r3, #6]
 3565 0012 DBB2     		uxtb	r3, r3
 3566 0014 1A1C     		mov	r2, r3
 3567 0016 0C23     		mov	r3, #12
 3568 0018 1340     		and	r3, r2
 3569 001a 9B08     		lsr	r3, r3, #2
 3570 001c 022B     		cmp	r3, #2
 3571 001e 14D1     		bne	.L271
 905:../Sources/system/CrystalClock.c ****       (!(MCG_S & MCG_S_IREFST_MASK)) &&                               // check FLL ref is external 
 3572              		.loc 1 905 0
 3573 0020 8F4B     		ldr	r3, .L305
 3574 0022 9B79     		ldrb	r3, [r3, #6]
 3575 0024 DBB2     		uxtb	r3, r3
 3576 0026 1A1C     		mov	r2, r3
 3577 0028 1023     		mov	r3, #16
 3578 002a 1340     		and	r3, r2
 904:../Sources/system/CrystalClock.c ****   if (!((((MCG_S & MCG_S_CLKST_MASK) >> MCG_S_CLKST_SHIFT) == 0x2) && // check CLKS mux has selcted
 3579              		.loc 1 904 0
 3580 002c 0DD1     		bne	.L271
 906:../Sources/system/CrystalClock.c ****       (!(MCG_S & MCG_S_PLLST_MASK)) &&                                // check PLLS mux has selecte
 3581              		.loc 1 906 0
 3582 002e 8C4B     		ldr	r3, .L305
 3583 0030 9B79     		ldrb	r3, [r3, #6]
 3584 0032 DBB2     		uxtb	r3, r3
 3585 0034 1A1C     		mov	r2, r3
 3586 0036 2023     		mov	r3, #32
 3587 0038 1340     		and	r3, r2
 905:../Sources/system/CrystalClock.c ****       (!(MCG_S & MCG_S_IREFST_MASK)) &&                               // check FLL ref is external 
 3588              		.loc 1 905 0
 3589 003a 06D1     		bne	.L271
 907:../Sources/system/CrystalClock.c ****       (!(MCG_C2 & MCG_C2_LP_MASK))))                                  // check MCG_C2[LP] bit is no
 3590              		.loc 1 907 0
 3591 003c 884B     		ldr	r3, .L305
 3592 003e 5B78     		ldrb	r3, [r3, #1]
 3593 0040 DBB2     		uxtb	r3, r3
 3594 0042 1A1C     		mov	r2, r3
 3595 0044 0223     		mov	r3, #2
 3596 0046 1340     		and	r3, r2
 904:../Sources/system/CrystalClock.c ****   if (!((((MCG_S & MCG_S_CLKST_MASK) >> MCG_S_CLKST_SHIFT) == 0x2) && // check CLKS mux has selcted
 3597              		.loc 1 904 0
 3598 0048 01D0     		beq	.L272
 3599              	.L271:
 908:../Sources/system/CrystalClock.c ****   {
 909:../Sources/system/CrystalClock.c ****     return 0x4;                                                       // return error code
 3600              		.loc 1 909 0
 3601 004a 0423     		mov	r3, #4
 3602 004c 04E1     		b	.L273
 3603              	.L272:
 910:../Sources/system/CrystalClock.c ****   }
 911:../Sources/system/CrystalClock.c **** 
 912:../Sources/system/CrystalClock.c **** // Check that the irc frequency matches the selected IRC 
 913:../Sources/system/CrystalClock.c ****   if (!(irc_select))
 3604              		.loc 1 913 0
 3605 004e FB1C     		add	r3, r7, #3
 3606 0050 1B78     		ldrb	r3, [r3]
 3607 0052 002B     		cmp	r3, #0
 3608 0054 09D1     		bne	.L274
 914:../Sources/system/CrystalClock.c ****   {    
 915:../Sources/system/CrystalClock.c ****     if ((irc_freq < 31250) || (irc_freq > 39063)) {return 0x31;}
 3609              		.loc 1 915 0
 3610 0056 7A68     		ldr	r2, [r7, #4]
 3611 0058 824B     		ldr	r3, .L305+4
 3612 005a 9A42     		cmp	r2, r3
 3613 005c 03DD     		ble	.L275
 3614              		.loc 1 915 0 is_stmt 0
 3615 005e 7A68     		ldr	r2, [r7, #4]
 3616 0060 814B     		ldr	r3, .L305+8
 3617 0062 9A42     		cmp	r2, r3
 3618 0064 0BDD     		ble	.L276
 3619              	.L275:
 3620              		.loc 1 915 0
 3621 0066 3123     		mov	r3, #49
 3622 0068 F6E0     		b	.L273
 3623              	.L274:
 916:../Sources/system/CrystalClock.c ****   }
 917:../Sources/system/CrystalClock.c ****   else
 918:../Sources/system/CrystalClock.c ****   {
 919:../Sources/system/CrystalClock.c ****     if ((irc_freq < 3000000) || (irc_freq > 5000000)) {return 0x32;} // Fast IRC freq
 3624              		.loc 1 919 0 is_stmt 1
 3625 006a 7A68     		ldr	r2, [r7, #4]
 3626 006c 7F4B     		ldr	r3, .L305+12
 3627 006e 9A42     		cmp	r2, r3
 3628 0070 03DD     		ble	.L277
 3629              		.loc 1 919 0 is_stmt 0
 3630 0072 7A68     		ldr	r2, [r7, #4]
 3631 0074 7E4B     		ldr	r3, .L305+16
 3632 0076 9A42     		cmp	r2, r3
 3633 0078 01DD     		ble	.L276
 3634              	.L277:
 3635              		.loc 1 919 0
 3636 007a 3223     		mov	r3, #50
 3637 007c ECE0     		b	.L273
 3638              	.L276:
 920:../Sources/system/CrystalClock.c ****   }
 921:../Sources/system/CrystalClock.c ****   
 922:../Sources/system/CrystalClock.c **** // Select the required IRC
 923:../Sources/system/CrystalClock.c ****   if (irc_select)
 3639              		.loc 1 923 0 is_stmt 1
 3640 007e FB1C     		add	r3, r7, #3
 3641 0080 1B78     		ldrb	r3, [r3]
 3642 0082 002B     		cmp	r3, #0
 3643 0084 08D0     		beq	.L278
 924:../Sources/system/CrystalClock.c ****   {
 925:../Sources/system/CrystalClock.c ****     MCG_C2 |= MCG_C2_IRCS_MASK; // select fast IRC by setting IRCS
 3644              		.loc 1 925 0
 3645 0086 764B     		ldr	r3, .L305
 3646 0088 754A     		ldr	r2, .L305
 3647 008a 5278     		ldrb	r2, [r2, #1]
 3648 008c D2B2     		uxtb	r2, r2
 3649 008e 0121     		mov	r1, #1
 3650 0090 0A43     		orr	r2, r1
 3651 0092 D2B2     		uxtb	r2, r2
 3652 0094 5A70     		strb	r2, [r3, #1]
 3653 0096 07E0     		b	.L279
 3654              	.L278:
 926:../Sources/system/CrystalClock.c ****   }
 927:../Sources/system/CrystalClock.c ****   else
 928:../Sources/system/CrystalClock.c ****   {
 929:../Sources/system/CrystalClock.c ****     MCG_C2 &= ~MCG_C2_IRCS_MASK; // select slow IRC by clearing IRCS
 3655              		.loc 1 929 0
 3656 0098 714B     		ldr	r3, .L305
 3657 009a 714A     		ldr	r2, .L305
 3658 009c 5278     		ldrb	r2, [r2, #1]
 3659 009e D2B2     		uxtb	r2, r2
 3660 00a0 0121     		mov	r1, #1
 3661 00a2 8A43     		bic	r2, r1
 3662 00a4 D2B2     		uxtb	r2, r2
 3663 00a6 5A70     		strb	r2, [r3, #1]
 3664              	.L279:
 930:../Sources/system/CrystalClock.c ****   }
 931:../Sources/system/CrystalClock.c ****   
 932:../Sources/system/CrystalClock.c **** // Make sure the clock monitor is disabled before switching modes otherwise it will trigger
 933:../Sources/system/CrystalClock.c ****   MCG_C6 &= ~MCG_C6_CME0_MASK;
 3665              		.loc 1 933 0
 3666 00a8 6D4B     		ldr	r3, .L305
 3667 00aa 6D4A     		ldr	r2, .L305
 3668 00ac 5279     		ldrb	r2, [r2, #5]
 3669 00ae D2B2     		uxtb	r2, r2
 3670 00b0 2021     		mov	r1, #32
 3671 00b2 8A43     		bic	r2, r1
 3672 00b4 D2B2     		uxtb	r2, r2
 3673 00b6 5A71     		strb	r2, [r3, #5]
 934:../Sources/system/CrystalClock.c ****   
 935:../Sources/system/CrystalClock.c **** // Select the IRC as the CLKS mux selection
 936:../Sources/system/CrystalClock.c ****   temp_reg = MCG_C1;
 3674              		.loc 1 936 0
 3675 00b8 694A     		ldr	r2, .L305
 3676 00ba 3B1C     		mov	r3, r7
 3677 00bc 0D33     		add	r3, r3, #13
 3678 00be 1278     		ldrb	r2, [r2]
 3679 00c0 1A70     		strb	r2, [r3]
 937:../Sources/system/CrystalClock.c ****   temp_reg &= ~MCG_C1_CLKS_MASK;                    // clear CLKS bits 
 3680              		.loc 1 937 0
 3681 00c2 3B1C     		mov	r3, r7
 3682 00c4 0D33     		add	r3, r3, #13
 3683 00c6 3A1C     		mov	r2, r7
 3684 00c8 0D32     		add	r2, r2, #13
 3685 00ca 1178     		ldrb	r1, [r2]
 3686 00cc 3F22     		mov	r2, #63
 3687 00ce 0A40     		and	r2, r1
 3688 00d0 1A70     		strb	r2, [r3]
 938:../Sources/system/CrystalClock.c ****   temp_reg |= (MCG_C1_CLKS(1) | MCG_C1_IREFS_MASK); // select IRC as MCGOUT and enable IREFS
 3689              		.loc 1 938 0
 3690 00d2 3B1C     		mov	r3, r7
 3691 00d4 0D33     		add	r3, r3, #13
 3692 00d6 3A1C     		mov	r2, r7
 3693 00d8 0D32     		add	r2, r2, #13
 3694 00da 1278     		ldrb	r2, [r2]
 3695 00dc 4421     		mov	r1, #68
 3696 00de 0A43     		orr	r2, r1
 3697 00e0 1A70     		strb	r2, [r3]
 939:../Sources/system/CrystalClock.c ****   MCG_C1 = temp_reg; // update MCG_C1
 3698              		.loc 1 939 0
 3699 00e2 5F4B     		ldr	r3, .L305
 3700 00e4 3A1C     		mov	r2, r7
 3701 00e6 0D32     		add	r2, r2, #13
 3702 00e8 1278     		ldrb	r2, [r2]
 3703 00ea 1A70     		strb	r2, [r3]
 940:../Sources/system/CrystalClock.c ****   
 941:../Sources/system/CrystalClock.c **** // wait until internal reference switches to requested irc.
 942:../Sources/system/CrystalClock.c ****   if (!(irc_select))
 3704              		.loc 1 942 0
 3705 00ec FB1C     		add	r3, r7, #3
 3706 00ee 1B78     		ldrb	r3, [r3]
 3707 00f0 002B     		cmp	r3, #0
 3708 00f2 24D1     		bne	.L280
 943:../Sources/system/CrystalClock.c ****   {
 944:../Sources/system/CrystalClock.c ****     for (i = 0 ; i < 2000 ; i++)
 3709              		.loc 1 944 0
 3710 00f4 3B1C     		mov	r3, r7
 3711 00f6 0E33     		add	r3, r3, #14
 3712 00f8 0022     		mov	r2, #0
 3713 00fa 1A80     		strh	r2, [r3]
 3714 00fc 0DE0     		b	.L281
 3715              	.L284:
 945:../Sources/system/CrystalClock.c ****     {
 946:../Sources/system/CrystalClock.c ****       if (!(MCG_S & MCG_S_IRCST_MASK)) break; // jump out early if IRCST clears before loop finishe
 3716              		.loc 1 946 0
 3717 00fe 584B     		ldr	r3, .L305
 3718 0100 9B79     		ldrb	r3, [r3, #6]
 3719 0102 DBB2     		uxtb	r3, r3
 3720 0104 1A1C     		mov	r2, r3
 3721 0106 0123     		mov	r3, #1
 3722 0108 1340     		and	r3, r2
 3723 010a 0ED0     		beq	.L301
 3724              	.L282:
 944:../Sources/system/CrystalClock.c ****     for (i = 0 ; i < 2000 ; i++)
 3725              		.loc 1 944 0
 3726 010c 3B1C     		mov	r3, r7
 3727 010e 0E33     		add	r3, r3, #14
 3728 0110 3A1C     		mov	r2, r7
 3729 0112 0E32     		add	r2, r2, #14
 3730 0114 1288     		ldrh	r2, [r2]
 3731 0116 0132     		add	r2, r2, #1
 3732 0118 1A80     		strh	r2, [r3]
 3733              	.L281:
 944:../Sources/system/CrystalClock.c ****     for (i = 0 ; i < 2000 ; i++)
 3734              		.loc 1 944 0 is_stmt 0
 3735 011a 3B1C     		mov	r3, r7
 3736 011c 0E33     		add	r3, r3, #14
 3737 011e 0021     		mov	r1, #0
 3738 0120 5A5E     		ldrsh	r2, [r3, r1]
 3739 0122 544B     		ldr	r3, .L305+20
 3740 0124 9A42     		cmp	r2, r3
 3741 0126 EADD     		ble	.L284
 3742 0128 00E0     		b	.L283
 3743              	.L301:
 3744              		.loc 1 946 0 is_stmt 1
 3745 012a C046     		mov	r8, r8
 3746              	.L283:
 947:../Sources/system/CrystalClock.c ****     }
 948:../Sources/system/CrystalClock.c ****     if (MCG_S & MCG_S_IRCST_MASK) return 0x13; // check bit is really clear and return with error i
 3747              		.loc 1 948 0
 3748 012c 4C4B     		ldr	r3, .L305
 3749 012e 9B79     		ldrb	r3, [r3, #6]
 3750 0130 DBB2     		uxtb	r3, r3
 3751 0132 1A1C     		mov	r2, r3
 3752 0134 0123     		mov	r3, #1
 3753 0136 1340     		and	r3, r2
 3754 0138 26D0     		beq	.L285
 3755              		.loc 1 948 0 is_stmt 0
 3756 013a 1323     		mov	r3, #19
 3757 013c 8CE0     		b	.L273
 3758              	.L280:
 949:../Sources/system/CrystalClock.c ****   }
 950:../Sources/system/CrystalClock.c ****   else
 951:../Sources/system/CrystalClock.c ****   {
 952:../Sources/system/CrystalClock.c ****     for (i = 0 ; i < 2000 ; i++)
 3759              		.loc 1 952 0 is_stmt 1
 3760 013e 3B1C     		mov	r3, r7
 3761 0140 0E33     		add	r3, r3, #14
 3762 0142 0022     		mov	r2, #0
 3763 0144 1A80     		strh	r2, [r3]
 3764 0146 0DE0     		b	.L286
 3765              	.L289:
 953:../Sources/system/CrystalClock.c ****     {
 954:../Sources/system/CrystalClock.c ****       if (MCG_S & MCG_S_IRCST_MASK) break; // jump out early if IRCST sets before loop finishes
 3766              		.loc 1 954 0
 3767 0148 454B     		ldr	r3, .L305
 3768 014a 9B79     		ldrb	r3, [r3, #6]
 3769 014c DBB2     		uxtb	r3, r3
 3770 014e 1A1C     		mov	r2, r3
 3771 0150 0123     		mov	r3, #1
 3772 0152 1340     		and	r3, r2
 3773 0154 0ED1     		bne	.L302
 3774              	.L287:
 952:../Sources/system/CrystalClock.c ****     for (i = 0 ; i < 2000 ; i++)
 3775              		.loc 1 952 0
 3776 0156 3B1C     		mov	r3, r7
 3777 0158 0E33     		add	r3, r3, #14
 3778 015a 3A1C     		mov	r2, r7
 3779 015c 0E32     		add	r2, r2, #14
 3780 015e 1288     		ldrh	r2, [r2]
 3781 0160 0132     		add	r2, r2, #1
 3782 0162 1A80     		strh	r2, [r3]
 3783              	.L286:
 952:../Sources/system/CrystalClock.c ****     for (i = 0 ; i < 2000 ; i++)
 3784              		.loc 1 952 0 is_stmt 0
 3785 0164 3B1C     		mov	r3, r7
 3786 0166 0E33     		add	r3, r3, #14
 3787 0168 0021     		mov	r1, #0
 3788 016a 5A5E     		ldrsh	r2, [r3, r1]
 3789 016c 414B     		ldr	r3, .L305+20
 3790 016e 9A42     		cmp	r2, r3
 3791 0170 EADD     		ble	.L289
 3792 0172 00E0     		b	.L288
 3793              	.L302:
 3794              		.loc 1 954 0 is_stmt 1
 3795 0174 C046     		mov	r8, r8
 3796              	.L288:
 955:../Sources/system/CrystalClock.c ****     }
 956:../Sources/system/CrystalClock.c ****     if (!(MCG_S & MCG_S_IRCST_MASK)) return 0x14; // check bit is really set and return with error 
 3797              		.loc 1 956 0
 3798 0176 3A4B     		ldr	r3, .L305
 3799 0178 9B79     		ldrb	r3, [r3, #6]
 3800 017a DBB2     		uxtb	r3, r3
 3801 017c 1A1C     		mov	r2, r3
 3802 017e 0123     		mov	r3, #1
 3803 0180 1340     		and	r3, r2
 3804 0182 01D1     		bne	.L285
 3805              		.loc 1 956 0 is_stmt 0
 3806 0184 1423     		mov	r3, #20
 3807 0186 67E0     		b	.L273
 3808              	.L285:
 957:../Sources/system/CrystalClock.c ****   }
 958:../Sources/system/CrystalClock.c ****  
 959:../Sources/system/CrystalClock.c **** // Wait for clock status bits to update
 960:../Sources/system/CrystalClock.c ****   for (i = 0 ; i < 2000 ; i++)
 3809              		.loc 1 960 0 is_stmt 1
 3810 0188 3B1C     		mov	r3, r7
 3811 018a 0E33     		add	r3, r3, #14
 3812 018c 0022     		mov	r2, #0
 3813 018e 1A80     		strh	r2, [r3]
 3814 0190 0FE0     		b	.L290
 3815              	.L293:
 961:../Sources/system/CrystalClock.c ****   {
 962:../Sources/system/CrystalClock.c ****     if (((MCG_S & MCG_S_CLKST_MASK) >> MCG_S_CLKST_SHIFT) == 0x1) break; // jump out early if CLKST
 3816              		.loc 1 962 0
 3817 0192 334B     		ldr	r3, .L305
 3818 0194 9B79     		ldrb	r3, [r3, #6]
 3819 0196 DBB2     		uxtb	r3, r3
 3820 0198 1A1C     		mov	r2, r3
 3821 019a 0C23     		mov	r3, #12
 3822 019c 1340     		and	r3, r2
 3823 019e 9B08     		lsr	r3, r3, #2
 3824 01a0 012B     		cmp	r3, #1
 3825 01a2 0ED0     		beq	.L303
 3826              	.L291:
 960:../Sources/system/CrystalClock.c ****   for (i = 0 ; i < 2000 ; i++)
 3827              		.loc 1 960 0
 3828 01a4 3B1C     		mov	r3, r7
 3829 01a6 0E33     		add	r3, r3, #14
 3830 01a8 3A1C     		mov	r2, r7
 3831 01aa 0E32     		add	r2, r2, #14
 3832 01ac 1288     		ldrh	r2, [r2]
 3833 01ae 0132     		add	r2, r2, #1
 3834 01b0 1A80     		strh	r2, [r3]
 3835              	.L290:
 960:../Sources/system/CrystalClock.c ****   for (i = 0 ; i < 2000 ; i++)
 3836              		.loc 1 960 0 is_stmt 0
 3837 01b2 3B1C     		mov	r3, r7
 3838 01b4 0E33     		add	r3, r3, #14
 3839 01b6 0021     		mov	r1, #0
 3840 01b8 5A5E     		ldrsh	r2, [r3, r1]
 3841 01ba 2E4B     		ldr	r3, .L305+20
 3842 01bc 9A42     		cmp	r2, r3
 3843 01be E8DD     		ble	.L293
 3844 01c0 00E0     		b	.L292
 3845              	.L303:
 3846              		.loc 1 962 0 is_stmt 1
 3847 01c2 C046     		mov	r8, r8
 3848              	.L292:
 963:../Sources/system/CrystalClock.c ****   }
 964:../Sources/system/CrystalClock.c ****   if (((MCG_S & MCG_S_CLKST_MASK) >> MCG_S_CLKST_SHIFT) != 0x1) return 0x19; // check IRC is really
 3849              		.loc 1 964 0
 3850 01c4 264B     		ldr	r3, .L305
 3851 01c6 9B79     		ldrb	r3, [r3, #6]
 3852 01c8 DBB2     		uxtb	r3, r3
 3853 01ca 1A1C     		mov	r2, r3
 3854 01cc 0C23     		mov	r3, #12
 3855 01ce 1340     		and	r3, r2
 3856 01d0 9B08     		lsr	r3, r3, #2
 3857 01d2 012B     		cmp	r3, #1
 3858 01d4 01D0     		beq	.L294
 3859              		.loc 1 964 0 is_stmt 0
 3860 01d6 1923     		mov	r3, #25
 3861 01d8 3EE0     		b	.L273
 3862              	.L294:
 965:../Sources/system/CrystalClock.c ****   
 966:../Sources/system/CrystalClock.c ****   // wait for Reference clock Status bit to set
 967:../Sources/system/CrystalClock.c ****   for (i = 0 ; i < 2000 ; i++)
 3863              		.loc 1 967 0 is_stmt 1
 3864 01da 3B1C     		mov	r3, r7
 3865 01dc 0E33     		add	r3, r3, #14
 3866 01de 0022     		mov	r2, #0
 3867 01e0 1A80     		strh	r2, [r3]
 3868 01e2 0DE0     		b	.L295
 3869              	.L298:
 968:../Sources/system/CrystalClock.c ****   {
 969:../Sources/system/CrystalClock.c ****     if (MCG_S & MCG_S_IREFST_MASK) break; // jump out early if IREFST sets before loop finishes
 3870              		.loc 1 969 0
 3871 01e4 1E4B     		ldr	r3, .L305
 3872 01e6 9B79     		ldrb	r3, [r3, #6]
 3873 01e8 DBB2     		uxtb	r3, r3
 3874 01ea 1A1C     		mov	r2, r3
 3875 01ec 1023     		mov	r3, #16
 3876 01ee 1340     		and	r3, r2
 3877 01f0 0ED1     		bne	.L304
 3878              	.L296:
 967:../Sources/system/CrystalClock.c ****   for (i = 0 ; i < 2000 ; i++)
 3879              		.loc 1 967 0
 3880 01f2 3B1C     		mov	r3, r7
 3881 01f4 0E33     		add	r3, r3, #14
 3882 01f6 3A1C     		mov	r2, r7
 3883 01f8 0E32     		add	r2, r2, #14
 3884 01fa 1288     		ldrh	r2, [r2]
 3885 01fc 0132     		add	r2, r2, #1
 3886 01fe 1A80     		strh	r2, [r3]
 3887              	.L295:
 967:../Sources/system/CrystalClock.c ****   for (i = 0 ; i < 2000 ; i++)
 3888              		.loc 1 967 0 is_stmt 0
 3889 0200 3B1C     		mov	r3, r7
 3890 0202 0E33     		add	r3, r3, #14
 3891 0204 0021     		mov	r1, #0
 3892 0206 5A5E     		ldrsh	r2, [r3, r1]
 3893 0208 1A4B     		ldr	r3, .L305+20
 3894 020a 9A42     		cmp	r2, r3
 3895 020c EADD     		ble	.L298
 3896 020e 00E0     		b	.L297
 3897              	.L304:
 3898              		.loc 1 969 0 is_stmt 1
 3899 0210 C046     		mov	r8, r8
 3900              	.L297:
 970:../Sources/system/CrystalClock.c ****   }
 971:../Sources/system/CrystalClock.c ****   if (!(MCG_S & MCG_S_IREFST_MASK)) return 0x12; // check bit is really set and return with error i
 3901              		.loc 1 971 0
 3902 0212 134B     		ldr	r3, .L305
 3903 0214 9B79     		ldrb	r3, [r3, #6]
 3904 0216 DBB2     		uxtb	r3, r3
 3905 0218 1A1C     		mov	r2, r3
 3906 021a 1023     		mov	r3, #16
 3907 021c 1340     		and	r3, r2
 3908 021e 01D1     		bne	.L299
 3909              		.loc 1 971 0 is_stmt 0
 3910 0220 1223     		mov	r3, #18
 3911 0222 19E0     		b	.L273
 3912              	.L299:
 972:../Sources/system/CrystalClock.c ****   
 973:../Sources/system/CrystalClock.c **** // Now in FBI mode
 974:../Sources/system/CrystalClock.c ****   
 975:../Sources/system/CrystalClock.c ****   if (irc_select)
 3913              		.loc 1 975 0 is_stmt 1
 3914 0224 FB1C     		add	r3, r7, #3
 3915 0226 1B78     		ldrb	r3, [r3]
 3916 0228 002B     		cmp	r3, #0
 3917 022a 14D0     		beq	.L300
 976:../Sources/system/CrystalClock.c ****   {
 977:../Sources/system/CrystalClock.c ****     fcrdiv_val = (1 << ((MCG_SC & MCG_SC_FCRDIV_MASK) >> MCG_SC_FCRDIV_SHIFT)); // calculate the fa
 3918              		.loc 1 977 0
 3919 022c 0C4B     		ldr	r3, .L305
 3920 022e 1B7A     		ldrb	r3, [r3, #8]
 3921 0230 DBB2     		uxtb	r3, r3
 3922 0232 1A1C     		mov	r2, r3
 3923 0234 0E23     		mov	r3, #14
 3924 0236 1340     		and	r3, r2
 3925 0238 5B08     		lsr	r3, r3, #1
 3926 023a 0122     		mov	r2, #1
 3927 023c 9A40     		lsl	r2, r2, r3
 3928 023e 3B1C     		mov	r3, r7
 3929 0240 0C33     		add	r3, r3, #12
 3930 0242 1A70     		strb	r2, [r3]
 978:../Sources/system/CrystalClock.c ****     return (irc_freq / fcrdiv_val); // MCGOUT frequency equals fast IRC frequency divided by FCRDIV
 3931              		.loc 1 978 0
 3932 0244 3B1C     		mov	r3, r7
 3933 0246 0C33     		add	r3, r3, #12
 3934 0248 1B78     		ldrb	r3, [r3]
 3935 024a 7868     		ldr	r0, [r7, #4]
 3936 024c 191C     		mov	r1, r3
 3937 024e FFF7FEFF 		bl	__aeabi_idiv
 3938 0252 031C     		mov	r3, r0
 3939 0254 00E0     		b	.L273
 3940              	.L300:
 979:../Sources/system/CrystalClock.c ****   }
 980:../Sources/system/CrystalClock.c ****   else
 981:../Sources/system/CrystalClock.c ****   {
 982:../Sources/system/CrystalClock.c ****     return irc_freq; // MCGOUT frequency equals slow IRC frequency
 3941              		.loc 1 982 0
 3942 0256 7B68     		ldr	r3, [r7, #4]
 3943              	.L273:
 983:../Sources/system/CrystalClock.c ****   }
 984:../Sources/system/CrystalClock.c **** } //fbe_fbi
 3944              		.loc 1 984 0
 3945 0258 181C     		mov	r0, r3
 3946 025a BD46     		mov	sp, r7
 3947 025c 04B0     		add	sp, sp, #16
 3948              		@ sp needed for prologue
 3949 025e 80BD     		pop	{r7, pc}
 3950              	.L306:
 3951              		.align	2
 3952              	.L305:
 3953 0260 00400640 		.word	1074151424
 3954 0264 117A0000 		.word	31249
 3955 0268 97980000 		.word	39063
 3956 026c BFC62D00 		.word	2999999
 3957 0270 404B4C00 		.word	5000000
 3958 0274 CF070000 		.word	1999
 3959              		.cfi_endproc
 3960              	.LFE14:
 3962              		.section	.text.fbi_fbe,"ax",%progbits
 3963              		.align	2
 3964              		.global	fbi_fbe
 3965              		.code	16
 3966              		.thumb_func
 3968              	fbi_fbe:
 3969              	.LFB15:
 985:../Sources/system/CrystalClock.c **** 
 986:../Sources/system/CrystalClock.c **** 
 987:../Sources/system/CrystalClock.c **** int fbi_fbe(int crystal_val, unsigned char hgo_val, unsigned char erefs_val)
 988:../Sources/system/CrystalClock.c **** {
 3970              		.loc 1 988 0
 3971              		.cfi_startproc
 3972 0000 80B5     		push	{r7, lr}
 3973              	.LCFI45:
 3974              		.cfi_def_cfa_offset 8
 3975              		.cfi_offset 7, -8
 3976              		.cfi_offset 14, -4
 3977 0002 84B0     		sub	sp, sp, #16
 3978              	.LCFI46:
 3979              		.cfi_def_cfa_offset 24
 3980 0004 00AF     		add	r7, sp, #0
 3981              	.LCFI47:
 3982              		.cfi_def_cfa_register 7
 3983 0006 7860     		str	r0, [r7, #4]
 3984 0008 FB1C     		add	r3, r7, #3
 3985 000a 1970     		strb	r1, [r3]
 3986 000c BB1C     		add	r3, r7, #2
 3987 000e 1A70     		strb	r2, [r3]
 989:../Sources/system/CrystalClock.c ****   unsigned char temp_reg;
 990:../Sources/system/CrystalClock.c ****   unsigned char frdiv_val;
 991:../Sources/system/CrystalClock.c ****   short i;
 992:../Sources/system/CrystalClock.c ****   
 993:../Sources/system/CrystalClock.c **** // check if in FBI mode
 994:../Sources/system/CrystalClock.c ****   if (!((((MCG_S & MCG_S_CLKST_MASK) >> MCG_S_CLKST_SHIFT) == 0x1) && // check CLKS mux has selcted
 3988              		.loc 1 994 0
 3989 0010 B84B     		ldr	r3, .L343
 3990 0012 9B79     		ldrb	r3, [r3, #6]
 3991 0014 DBB2     		uxtb	r3, r3
 3992 0016 1A1C     		mov	r2, r3
 3993 0018 0C23     		mov	r3, #12
 3994 001a 1340     		and	r3, r2
 3995 001c 9B08     		lsr	r3, r3, #2
 3996 001e 012B     		cmp	r3, #1
 3997 0020 14D1     		bne	.L308
 995:../Sources/system/CrystalClock.c ****       (MCG_S & MCG_S_IREFST_MASK) &&                                  // check FLL ref is internal 
 3998              		.loc 1 995 0
 3999 0022 B44B     		ldr	r3, .L343
 4000 0024 9B79     		ldrb	r3, [r3, #6]
 4001 0026 DBB2     		uxtb	r3, r3
 4002 0028 1A1C     		mov	r2, r3
 4003 002a 1023     		mov	r3, #16
 4004 002c 1340     		and	r3, r2
 994:../Sources/system/CrystalClock.c ****   if (!((((MCG_S & MCG_S_CLKST_MASK) >> MCG_S_CLKST_SHIFT) == 0x1) && // check CLKS mux has selcted
 4005              		.loc 1 994 0
 4006 002e 0DD0     		beq	.L308
 996:../Sources/system/CrystalClock.c ****       (!(MCG_S & MCG_S_PLLST_MASK)) &&                                // check PLLS mux has selecte
 4007              		.loc 1 996 0
 4008 0030 B04B     		ldr	r3, .L343
 4009 0032 9B79     		ldrb	r3, [r3, #6]
 4010 0034 DBB2     		uxtb	r3, r3
 4011 0036 1A1C     		mov	r2, r3
 4012 0038 2023     		mov	r3, #32
 4013 003a 1340     		and	r3, r2
 995:../Sources/system/CrystalClock.c ****       (MCG_S & MCG_S_IREFST_MASK) &&                                  // check FLL ref is internal 
 4014              		.loc 1 995 0
 4015 003c 06D1     		bne	.L308
 997:../Sources/system/CrystalClock.c ****       (!(MCG_C2 & MCG_C2_LP_MASK))))                                  // check LP bit is clear
 4016              		.loc 1 997 0
 4017 003e AD4B     		ldr	r3, .L343
 4018 0040 5B78     		ldrb	r3, [r3, #1]
 4019 0042 DBB2     		uxtb	r3, r3
 4020 0044 1A1C     		mov	r2, r3
 4021 0046 0223     		mov	r3, #2
 4022 0048 1340     		and	r3, r2
 994:../Sources/system/CrystalClock.c ****   if (!((((MCG_S & MCG_S_CLKST_MASK) >> MCG_S_CLKST_SHIFT) == 0x1) && // check CLKS mux has selcted
 4023              		.loc 1 994 0
 4024 004a 01D0     		beq	.L309
 4025              	.L308:
 998:../Sources/system/CrystalClock.c ****   {  
 999:../Sources/system/CrystalClock.c ****     return 0x3;                                                       // MCG not in correct mode re
 4026              		.loc 1 999 0
 4027 004c 0323     		mov	r3, #3
 4028 004e 4DE1     		b	.L310
 4029              	.L309:
1000:../Sources/system/CrystalClock.c ****   }
1001:../Sources/system/CrystalClock.c ****  
1002:../Sources/system/CrystalClock.c **** // check external frequency is less than the maximum frequency
1003:../Sources/system/CrystalClock.c ****   if  (crystal_val > 50000000) {return 0x21;}
 4030              		.loc 1 1003 0
 4031 0050 7A68     		ldr	r2, [r7, #4]
 4032 0052 A94B     		ldr	r3, .L343+4
 4033 0054 9A42     		cmp	r2, r3
 4034 0056 01DD     		ble	.L311
 4035              		.loc 1 1003 0 is_stmt 0
 4036 0058 2123     		mov	r3, #33
 4037 005a 47E1     		b	.L310
 4038              	.L311:
1004:../Sources/system/CrystalClock.c ****   
1005:../Sources/system/CrystalClock.c **** // check crystal frequency is within spec. if crystal osc is being used
1006:../Sources/system/CrystalClock.c ****   if (erefs_val)
 4039              		.loc 1 1006 0 is_stmt 1
 4040 005c BB1C     		add	r3, r7, #2
 4041 005e 1B78     		ldrb	r3, [r3]
 4042 0060 002B     		cmp	r3, #0
 4043 0062 11D0     		beq	.L312
1007:../Sources/system/CrystalClock.c ****   {
1008:../Sources/system/CrystalClock.c ****     if ((crystal_val < 30000) ||
 4044              		.loc 1 1008 0
 4045 0064 7A68     		ldr	r2, [r7, #4]
 4046 0066 A54B     		ldr	r3, .L343+8
 4047 0068 9A42     		cmp	r2, r3
 4048 006a 0BDD     		ble	.L313
 4049              		.loc 1 1008 0 is_stmt 0
 4050 006c 7A68     		ldr	r2, [r7, #4]
 4051 006e A44B     		ldr	r3, .L343+12
 4052 0070 9A42     		cmp	r2, r3
 4053 0072 03DD     		ble	.L314
1009:../Sources/system/CrystalClock.c ****         ((crystal_val > 40000) && (crystal_val < 3000000)) ||
 4054              		.loc 1 1009 0 is_stmt 1
 4055 0074 7A68     		ldr	r2, [r7, #4]
 4056 0076 A34B     		ldr	r3, .L343+16
 4057 0078 9A42     		cmp	r2, r3
 4058 007a 03DD     		ble	.L313
 4059              	.L314:
 4060              		.loc 1 1009 0 is_stmt 0
 4061 007c 7A68     		ldr	r2, [r7, #4]
 4062 007e A24B     		ldr	r3, .L343+20
 4063 0080 9A42     		cmp	r2, r3
 4064 0082 01DD     		ble	.L312
 4065              	.L313:
1010:../Sources/system/CrystalClock.c ****         (crystal_val > 32000000)) {return 0x22;} // return error if one of the available crystal op
 4066              		.loc 1 1010 0 is_stmt 1
 4067 0084 2223     		mov	r3, #34
 4068 0086 31E1     		b	.L310
 4069              	.L312:
1011:../Sources/system/CrystalClock.c ****   }
1012:../Sources/system/CrystalClock.c **** 
1013:../Sources/system/CrystalClock.c **** // make sure HGO will never be greater than 1. Could return an error instead if desired.  
1014:../Sources/system/CrystalClock.c ****   if (hgo_val > 0)
 4070              		.loc 1 1014 0
 4071 0088 FB1C     		add	r3, r7, #3
 4072 008a 1B78     		ldrb	r3, [r3]
 4073 008c 002B     		cmp	r3, #0
 4074 008e 02D0     		beq	.L315
1015:../Sources/system/CrystalClock.c ****   {
1016:../Sources/system/CrystalClock.c ****     hgo_val = 1; // force hgo_val to 1 if > 0
 4075              		.loc 1 1016 0
 4076 0090 FB1C     		add	r3, r7, #3
 4077 0092 0122     		mov	r2, #1
 4078 0094 1A70     		strb	r2, [r3]
 4079              	.L315:
1017:../Sources/system/CrystalClock.c ****   }
1018:../Sources/system/CrystalClock.c **** 
1019:../Sources/system/CrystalClock.c **** // configure the MCG_C2 register
1020:../Sources/system/CrystalClock.c **** // the RANGE value is determined by the external frequency. Since the RANGE parameter affects the F
1021:../Sources/system/CrystalClock.c **** // it still needs to be set correctly even if the oscillator is not being used
1022:../Sources/system/CrystalClock.c ****   temp_reg = MCG_C2;
 4080              		.loc 1 1022 0
 4081 0096 974A     		ldr	r2, .L343
 4082 0098 3B1C     		mov	r3, r7
 4083 009a 0F33     		add	r3, r3, #15
 4084 009c 5278     		ldrb	r2, [r2, #1]
 4085 009e 1A70     		strb	r2, [r3]
1023:../Sources/system/CrystalClock.c ****   temp_reg &= ~(MCG_C2_RANGE0_MASK | MCG_C2_HGO0_MASK | MCG_C2_EREFS0_MASK); // clear fields before
 4086              		.loc 1 1023 0
 4087 00a0 3B1C     		mov	r3, r7
 4088 00a2 0F33     		add	r3, r3, #15
 4089 00a4 3A1C     		mov	r2, r7
 4090 00a6 0F32     		add	r2, r2, #15
 4091 00a8 1278     		ldrb	r2, [r2]
 4092 00aa 3C21     		mov	r1, #60
 4093 00ac 8A43     		bic	r2, r1
 4094 00ae 1A70     		strb	r2, [r3]
1024:../Sources/system/CrystalClock.c ****   if (crystal_val <= 40000)
 4095              		.loc 1 1024 0
 4096 00b0 7A68     		ldr	r2, [r7, #4]
 4097 00b2 934B     		ldr	r3, .L343+12
 4098 00b4 9A42     		cmp	r2, r3
 4099 00b6 11DC     		bgt	.L316
1025:../Sources/system/CrystalClock.c ****   {
1026:../Sources/system/CrystalClock.c ****     temp_reg |= (MCG_C2_RANGE0(0) | (hgo_val << MCG_C2_HGO0_SHIFT) | (erefs_val << MCG_C2_EREFS0_SH
 4100              		.loc 1 1026 0
 4101 00b8 FB1C     		add	r3, r7, #3
 4102 00ba 1B78     		ldrb	r3, [r3]
 4103 00bc DB00     		lsl	r3, r3, #3
 4104 00be DAB2     		uxtb	r2, r3
 4105 00c0 BB1C     		add	r3, r7, #2
 4106 00c2 1B78     		ldrb	r3, [r3]
 4107 00c4 9B00     		lsl	r3, r3, #2
 4108 00c6 DBB2     		uxtb	r3, r3
 4109 00c8 1343     		orr	r3, r2
 4110 00ca D9B2     		uxtb	r1, r3
 4111 00cc 3B1C     		mov	r3, r7
 4112 00ce 0F33     		add	r3, r3, #15
 4113 00d0 3A1C     		mov	r2, r7
 4114 00d2 0F32     		add	r2, r2, #15
 4115 00d4 1278     		ldrb	r2, [r2]
 4116 00d6 0A43     		orr	r2, r1
 4117 00d8 1A70     		strb	r2, [r3]
 4118 00da 2CE0     		b	.L317
 4119              	.L316:
1027:../Sources/system/CrystalClock.c ****   }
1028:../Sources/system/CrystalClock.c ****   else if (crystal_val <= 8000000)
 4120              		.loc 1 1028 0
 4121 00dc 7A68     		ldr	r2, [r7, #4]
 4122 00de 8B4B     		ldr	r3, .L343+24
 4123 00e0 9A42     		cmp	r2, r3
 4124 00e2 14DC     		bgt	.L318
1029:../Sources/system/CrystalClock.c ****   {
1030:../Sources/system/CrystalClock.c ****     temp_reg |= (MCG_C2_RANGE0(1) | (hgo_val << MCG_C2_HGO0_SHIFT) | (erefs_val << MCG_C2_EREFS0_SH
 4125              		.loc 1 1030 0
 4126 00e4 FB1C     		add	r3, r7, #3
 4127 00e6 1B78     		ldrb	r3, [r3]
 4128 00e8 DB00     		lsl	r3, r3, #3
 4129 00ea DAB2     		uxtb	r2, r3
 4130 00ec BB1C     		add	r3, r7, #2
 4131 00ee 1B78     		ldrb	r3, [r3]
 4132 00f0 9B00     		lsl	r3, r3, #2
 4133 00f2 DBB2     		uxtb	r3, r3
 4134 00f4 1343     		orr	r3, r2
 4135 00f6 DAB2     		uxtb	r2, r3
 4136 00f8 3B1C     		mov	r3, r7
 4137 00fa 0F33     		add	r3, r3, #15
 4138 00fc 1B78     		ldrb	r3, [r3]
 4139 00fe 1343     		orr	r3, r2
 4140 0100 DAB2     		uxtb	r2, r3
 4141 0102 3B1C     		mov	r3, r7
 4142 0104 0F33     		add	r3, r3, #15
 4143 0106 1021     		mov	r1, #16
 4144 0108 0A43     		orr	r2, r1
 4145 010a 1A70     		strb	r2, [r3]
 4146 010c 13E0     		b	.L317
 4147              	.L318:
1031:../Sources/system/CrystalClock.c ****   }
1032:../Sources/system/CrystalClock.c ****   else
1033:../Sources/system/CrystalClock.c ****   {
1034:../Sources/system/CrystalClock.c ****     temp_reg |= (MCG_C2_RANGE0(2) | (hgo_val << MCG_C2_HGO0_SHIFT) | (erefs_val << MCG_C2_EREFS0_SH
 4148              		.loc 1 1034 0
 4149 010e FB1C     		add	r3, r7, #3
 4150 0110 1B78     		ldrb	r3, [r3]
 4151 0112 DB00     		lsl	r3, r3, #3
 4152 0114 DAB2     		uxtb	r2, r3
 4153 0116 BB1C     		add	r3, r7, #2
 4154 0118 1B78     		ldrb	r3, [r3]
 4155 011a 9B00     		lsl	r3, r3, #2
 4156 011c DBB2     		uxtb	r3, r3
 4157 011e 1343     		orr	r3, r2
 4158 0120 DAB2     		uxtb	r2, r3
 4159 0122 3B1C     		mov	r3, r7
 4160 0124 0F33     		add	r3, r3, #15
 4161 0126 1B78     		ldrb	r3, [r3]
 4162 0128 1343     		orr	r3, r2
 4163 012a DAB2     		uxtb	r2, r3
 4164 012c 3B1C     		mov	r3, r7
 4165 012e 0F33     		add	r3, r3, #15
 4166 0130 2021     		mov	r1, #32
 4167 0132 0A43     		orr	r2, r1
 4168 0134 1A70     		strb	r2, [r3]
 4169              	.L317:
1035:../Sources/system/CrystalClock.c ****   }
1036:../Sources/system/CrystalClock.c ****   MCG_C2 = temp_reg;
 4170              		.loc 1 1036 0
 4171 0136 6F4B     		ldr	r3, .L343
 4172 0138 3A1C     		mov	r2, r7
 4173 013a 0F32     		add	r2, r2, #15
 4174 013c 1278     		ldrb	r2, [r2]
 4175 013e 5A70     		strb	r2, [r3, #1]
1037:../Sources/system/CrystalClock.c **** 
1038:../Sources/system/CrystalClock.c **** // determine FRDIV based on reference clock frequency
1039:../Sources/system/CrystalClock.c **** // since the external frequency has already been checked only the maximum frequency for each FRDIV 
1040:../Sources/system/CrystalClock.c ****   if (crystal_val <= 1250000) {frdiv_val = 0;}
 4176              		.loc 1 1040 0
 4177 0140 7A68     		ldr	r2, [r7, #4]
 4178 0142 734B     		ldr	r3, .L343+28
 4179 0144 9A42     		cmp	r2, r3
 4180 0146 04DC     		bgt	.L319
 4181              		.loc 1 1040 0 is_stmt 0
 4182 0148 3B1C     		mov	r3, r7
 4183 014a 0E33     		add	r3, r3, #14
 4184 014c 0022     		mov	r2, #0
 4185 014e 1A70     		strb	r2, [r3]
 4186 0150 27E0     		b	.L320
 4187              	.L319:
1041:../Sources/system/CrystalClock.c ****   else if (crystal_val <= 2500000) {frdiv_val = 1;}
 4188              		.loc 1 1041 0 is_stmt 1
 4189 0152 7A68     		ldr	r2, [r7, #4]
 4190 0154 6F4B     		ldr	r3, .L343+32
 4191 0156 9A42     		cmp	r2, r3
 4192 0158 04DC     		bgt	.L321
 4193              		.loc 1 1041 0 is_stmt 0
 4194 015a 3B1C     		mov	r3, r7
 4195 015c 0E33     		add	r3, r3, #14
 4196 015e 0122     		mov	r2, #1
 4197 0160 1A70     		strb	r2, [r3]
 4198 0162 1EE0     		b	.L320
 4199              	.L321:
1042:../Sources/system/CrystalClock.c ****   else if (crystal_val <= 5000000) {frdiv_val = 2;}
 4200              		.loc 1 1042 0 is_stmt 1
 4201 0164 7A68     		ldr	r2, [r7, #4]
 4202 0166 6C4B     		ldr	r3, .L343+36
 4203 0168 9A42     		cmp	r2, r3
 4204 016a 04DC     		bgt	.L322
 4205              		.loc 1 1042 0 is_stmt 0
 4206 016c 3B1C     		mov	r3, r7
 4207 016e 0E33     		add	r3, r3, #14
 4208 0170 0222     		mov	r2, #2
 4209 0172 1A70     		strb	r2, [r3]
 4210 0174 15E0     		b	.L320
 4211              	.L322:
1043:../Sources/system/CrystalClock.c ****   else if (crystal_val <= 10000000) {frdiv_val = 3;}
 4212              		.loc 1 1043 0 is_stmt 1
 4213 0176 7A68     		ldr	r2, [r7, #4]
 4214 0178 684B     		ldr	r3, .L343+40
 4215 017a 9A42     		cmp	r2, r3
 4216 017c 04DC     		bgt	.L323
 4217              		.loc 1 1043 0 is_stmt 0
 4218 017e 3B1C     		mov	r3, r7
 4219 0180 0E33     		add	r3, r3, #14
 4220 0182 0322     		mov	r2, #3
 4221 0184 1A70     		strb	r2, [r3]
 4222 0186 0CE0     		b	.L320
 4223              	.L323:
1044:../Sources/system/CrystalClock.c ****   else if (crystal_val <= 20000000) {frdiv_val = 4;}
 4224              		.loc 1 1044 0 is_stmt 1
 4225 0188 7A68     		ldr	r2, [r7, #4]
 4226 018a 654B     		ldr	r3, .L343+44
 4227 018c 9A42     		cmp	r2, r3
 4228 018e 04DC     		bgt	.L324
 4229              		.loc 1 1044 0 is_stmt 0
 4230 0190 3B1C     		mov	r3, r7
 4231 0192 0E33     		add	r3, r3, #14
 4232 0194 0422     		mov	r2, #4
 4233 0196 1A70     		strb	r2, [r3]
 4234 0198 03E0     		b	.L320
 4235              	.L324:
1045:../Sources/system/CrystalClock.c ****   else {frdiv_val = 5;}
 4236              		.loc 1 1045 0 is_stmt 1
 4237 019a 3B1C     		mov	r3, r7
 4238 019c 0E33     		add	r3, r3, #14
 4239 019e 0522     		mov	r2, #5
 4240 01a0 1A70     		strb	r2, [r3]
 4241              	.L320:
1046:../Sources/system/CrystalClock.c ****   
1047:../Sources/system/CrystalClock.c **** // Select external oscilator and Reference Divider and clear IREFS to start ext osc
1048:../Sources/system/CrystalClock.c **** // If IRCLK is required it must be enabled outside of this driver, existing state will be maintaine
1049:../Sources/system/CrystalClock.c **** // CLKS=2, FRDIV=frdiv_val, IREFS=0, IRCLKEN=0, IREFSTEN=0
1050:../Sources/system/CrystalClock.c ****   temp_reg = MCG_C1;
 4242              		.loc 1 1050 0
 4243 01a2 544A     		ldr	r2, .L343
 4244 01a4 3B1C     		mov	r3, r7
 4245 01a6 0F33     		add	r3, r3, #15
 4246 01a8 1278     		ldrb	r2, [r2]
 4247 01aa 1A70     		strb	r2, [r3]
1051:../Sources/system/CrystalClock.c ****   temp_reg &= ~(MCG_C1_CLKS_MASK | MCG_C1_FRDIV_MASK | MCG_C1_IREFS_MASK); // Clear values in these
 4248              		.loc 1 1051 0
 4249 01ac 3B1C     		mov	r3, r7
 4250 01ae 0F33     		add	r3, r3, #15
 4251 01b0 3A1C     		mov	r2, r7
 4252 01b2 0F32     		add	r2, r2, #15
 4253 01b4 1178     		ldrb	r1, [r2]
 4254 01b6 0322     		mov	r2, #3
 4255 01b8 0A40     		and	r2, r1
 4256 01ba 1A70     		strb	r2, [r3]
1052:../Sources/system/CrystalClock.c ****   temp_reg |= (MCG_C1_CLKS(2) | MCG_C1_FRDIV(frdiv_val)); // Set the required CLKS and FRDIV values
 4257              		.loc 1 1052 0
 4258 01bc 3B1C     		mov	r3, r7
 4259 01be 0E33     		add	r3, r3, #14
 4260 01c0 1B78     		ldrb	r3, [r3]
 4261 01c2 DB00     		lsl	r3, r3, #3
 4262 01c4 DAB2     		uxtb	r2, r3
 4263 01c6 3823     		mov	r3, #56
 4264 01c8 1340     		and	r3, r2
 4265 01ca DAB2     		uxtb	r2, r3
 4266 01cc 3B1C     		mov	r3, r7
 4267 01ce 0F33     		add	r3, r3, #15
 4268 01d0 1B78     		ldrb	r3, [r3]
 4269 01d2 1343     		orr	r3, r2
 4270 01d4 DAB2     		uxtb	r2, r3
 4271 01d6 3B1C     		mov	r3, r7
 4272 01d8 0F33     		add	r3, r3, #15
 4273 01da 8021     		mov	r1, #128
 4274 01dc 4942     		neg	r1, r1
 4275 01de 0A43     		orr	r2, r1
 4276 01e0 1A70     		strb	r2, [r3]
1053:../Sources/system/CrystalClock.c ****   MCG_C1 = temp_reg;
 4277              		.loc 1 1053 0
 4278 01e2 444B     		ldr	r3, .L343
 4279 01e4 3A1C     		mov	r2, r7
 4280 01e6 0F32     		add	r2, r2, #15
 4281 01e8 1278     		ldrb	r2, [r2]
 4282 01ea 1A70     		strb	r2, [r3]
1054:../Sources/system/CrystalClock.c **** 
1055:../Sources/system/CrystalClock.c **** // if the external oscillator is used need to wait for OSCINIT to set
1056:../Sources/system/CrystalClock.c ****   if (erefs_val)
 4283              		.loc 1 1056 0
 4284 01ec BB1C     		add	r3, r7, #2
 4285 01ee 1B78     		ldrb	r3, [r3]
 4286 01f0 002B     		cmp	r3, #0
 4287 01f2 24D0     		beq	.L325
1057:../Sources/system/CrystalClock.c ****   {
1058:../Sources/system/CrystalClock.c ****     for (i = 0 ; i < 10000 ; i++)
 4288              		.loc 1 1058 0
 4289 01f4 3B1C     		mov	r3, r7
 4290 01f6 0C33     		add	r3, r3, #12
 4291 01f8 0022     		mov	r2, #0
 4292 01fa 1A80     		strh	r2, [r3]
 4293 01fc 0DE0     		b	.L326
 4294              	.L329:
1059:../Sources/system/CrystalClock.c ****     {
1060:../Sources/system/CrystalClock.c ****       if (MCG_S & MCG_S_OSCINIT0_MASK) break; // jump out early if OSCINIT sets before loop finishe
 4295              		.loc 1 1060 0
 4296 01fe 3D4B     		ldr	r3, .L343
 4297 0200 9B79     		ldrb	r3, [r3, #6]
 4298 0202 DBB2     		uxtb	r3, r3
 4299 0204 1A1C     		mov	r2, r3
 4300 0206 0223     		mov	r3, #2
 4301 0208 1340     		and	r3, r2
 4302 020a 0ED1     		bne	.L340
 4303              	.L327:
1058:../Sources/system/CrystalClock.c ****     for (i = 0 ; i < 10000 ; i++)
 4304              		.loc 1 1058 0
 4305 020c 3B1C     		mov	r3, r7
 4306 020e 0C33     		add	r3, r3, #12
 4307 0210 3A1C     		mov	r2, r7
 4308 0212 0C32     		add	r2, r2, #12
 4309 0214 1288     		ldrh	r2, [r2]
 4310 0216 0132     		add	r2, r2, #1
 4311 0218 1A80     		strh	r2, [r3]
 4312              	.L326:
1058:../Sources/system/CrystalClock.c ****     for (i = 0 ; i < 10000 ; i++)
 4313              		.loc 1 1058 0 is_stmt 0
 4314 021a 3B1C     		mov	r3, r7
 4315 021c 0C33     		add	r3, r3, #12
 4316 021e 0021     		mov	r1, #0
 4317 0220 5A5E     		ldrsh	r2, [r3, r1]
 4318 0222 404B     		ldr	r3, .L343+48
 4319 0224 9A42     		cmp	r2, r3
 4320 0226 EADD     		ble	.L329
 4321 0228 00E0     		b	.L328
 4322              	.L340:
 4323              		.loc 1 1060 0 is_stmt 1
